(dp0
ccopy_reg
_reconstructor
p1
(cmachine
ClosedMachine
p2
c__builtin__
object
p3
Ntp4
Rp5
(dp6
S'machine_id'
p7
I1
sb(lp8
(S'08:25'
p9
S'08:59'
p10
tp11
a(S'09:49'
p12
S'10:28'
p13
tp14
a(S'11:36'
p15
S'12:15'
p16
tp17
a(S'14:05'
p18
S'14:44'
p19
tp20
a(S'15:20'
p21
S'15:53'
p22
tp23
a(S'16:30'
p24
S'17:08'
p25
tp26
a(S'17:31'
p27
S'18:10'
p28
tp29
asg1
(g2
g3
Ntp30
Rp31
(dp32
g7
I2
sb(lp33
(S'08:25'
p34
S'09:03'
p35
tp36
a(S'09:49'
p37
S'10:27'
p38
tp39
a(S'11:36'
p40
S'12:15'
p41
tp42
a(S'13:03'
p43
S'13:41'
p44
tp45
a(S'14:05'
p46
S'14:45'
p47
tp48
a(S'16:30'
p49
S'17:09'
p50
tp51
a(S'17:31'
p52
S'18:09'
p53
tp54
asg1
(g2
g3
Ntp55
Rp56
(dp57
g7
I3
sb(lp58
(S'08:25'
p59
S'09:13'
p60
tp61
a(S'09:44'
p62
S'10:23'
p63
tp64
a(S'14:05'
p65
S'14:44'
p66
tp67
a(S'17:44'
p68
S'18:21'
p69
tp70
a(S'18:47'
p71
S'19:24'
p72
tp73
a(S'19:45'
p74
Ntp75
asg1
(g2
g3
Ntp76
Rp77
(dp78
g7
I4
sb(lp79
(S'09:44'
p80
S'10:23'
p81
tp82
a(S'10:29'
p83
S'11:06'
p84
tp85
a(S'13:25'
p86
S'14:04'
p87
tp88
a(S'15:04'
p89
S'15:42'
p90
tp91
asg1
(g2
g3
Ntp92
Rp93
(dp94
g7
I5
sb(lp95
(S'09:44'
p96
S'10:23'
p97
tp98
a(S'10:29'
p99
S'11:06'
p100
tp101
a(S'13:25'
p102
S'14:03'
p103
tp104
a(S'15:04'
p105
S'15:43'
p106
tp107
asg1
(g2
g3
Ntp108
Rp109
(dp110
g7
I6
sb(lp111
(S'10:02'
p112
S'10:35'
p113
tp114
a(S'11:03'
p115
S'11:42'
p116
tp117
a(S'15:12'
p118
S'15:50'
p119
tp120
a(S'16:31'
p121
S'17:11'
p122
tp123
a(S'18:08'
p124
S'18:45'
p125
tp126
a(S'19:45'
p127
Ntp128
asg1
(g2
g3
Ntp129
Rp130
(dp131
g7
I7
sb(lp132
(S'10:02'
p133
S'10:40'
p134
tp135
a(S'16:13'
p136
S'16:56'
p137
tp138
a(S'17:53'
p139
S'18:30'
p140
tp141
a(S'18:55'
p142
S'19:46'
p143
tp144
asg1
(g2
g3
Ntp145
Rp146
(dp147
g7
I8
sb(lp148
(S'19:32'
p149
Ntp150
asg1
(g2
g3
Ntp151
Rp152
(dp153
g7
I9
sb(lp154
(S'07:34'
p155
S'08:12'
p156
tp157
a(S'09:41'
p158
S'10:14'
p159
tp160
a(S'10:27'
p161
S'11:13'
p162
tp163
a(S'12:01'
p164
S'12:40'
p165
tp166
a(S'13:44'
p167
S'14:22'
p168
tp169
a(S'18:16'
p170
S'18:46'
p171
tp172
asg1
(g2
g3
Ntp173
Rp174
(dp175
g7
I10
sb(lp176
(S'07:00'
p177
S'07:39'
p178
tp179
a(S'09:18'
p180
S'09:58'
p181
tp182
a(S'10:27'
p183
S'11:15'
p184
tp185
a(S'19:32'
p186
Ntp187
asg1
(g2
g3
Ntp188
Rp189
(dp190
g7
I11
sb(lp191
(S'07:00'
p192
S'07:38'
p193
tp194
a(S'09:18'
p195
S'10:11'
p196
tp197
a(S'10:21'
p198
S'10:58'
p199
tp200
a(S'16:58'
p201
S'17:37'
p202
tp203
a(S'19:32'
p204
Ntp205
asg1
(g2
g3
Ntp206
Rp207
(dp208
g7
I12
sb(lp209
(S'07:42'
p210
S'08:19'
p211
tp212
a(S'09:06'
p213
S'09:45'
p214
tp215
a(S'10:12'
p216
S'10:49'
p217
tp218
a(S'16:58'
p219
S'17:32'
p220
tp221
a(S'19:38'
p222
Ntp223
asg1
(g2
g3
Ntp224
Rp225
(dp226
g7
I13
sb(lp227
(S'07:42'
p228
S'08:21'
p229
tp230
a(S'09:04'
p231
S'09:43'
p232
tp233
a(S'10:06'
p234
S'10:46'
p235
tp236
a(S'12:40'
p237
S'13:18'
p238
tp239
a(S'19:38'
p240
Ntp241
asg1
(g2
g3
Ntp242
Rp243
(dp244
g7
I14
sb(lp245
(S'07:32'
p246
S'08:11'
p247
tp248
a(S'09:04'
p249
S'09:44'
p250
tp251
a(S'10:06'
p252
S'10:46'
p253
tp254
a(S'12:40'
p255
S'12:53'
p256
tp257
a(S'13:21'
p258
S'13:47'
p259
tp260
a(S'14:50'
p261
S'15:28'
p262
tp263
a(S'16:45'
p264
S'17:24'
p265
tp266
a(S'19:45'
p267
Ntp268
asg1
(cmachine
BrokenDownMachine
p269
g3
Ntp270
Rp271
(dp272
g7
I15
sb(lp273
S'Ute av drift'
p274
asg1
(g2
g3
Ntp275
Rp276
(dp277
g7
I16
sb(lp278
(S'07:32'
p279
S'08:25'
p280
tp281
a(S'09:04'
p282
S'09:54'
p283
tp284
a(S'10:07'
p285
S'10:46'
p286
tp287
a(S'12:40'
p288
S'13:31'
p289
tp290
a(S'14:50'
p291
S'15:29'
p292
tp293
a(S'16:43'
p294
S'17:20'
p295
tp296
a(S'19:34'
p297
Ntp298
asg1
(g2
g3
Ntp299
Rp300
(dp301
g7
I17
sb(lp302
(S'07:32'
p303
S'08:13'
p304
tp305
a(S'09:04'
p306
S'09:41'
p307
tp308
a(S'10:12'
p309
S'10:51'
p310
tp311
a(S'12:40'
p312
S'13:27'
p313
tp314
a(S'14:50'
p315
S'15:30'
p316
tp317
a(S'16:43'
p318
S'17:14'
p319
tp320
a(S'19:34'
p321
Ntp322
asg1
(g2
g3
Ntp323
Rp324
(dp325
g7
I18
sb(lp326
(S'07:33'
p327
S'07:38'
p328
tp329
a(S'11:40'
p330
S'11:45'
p331
tp332
asg1
(g2
g3
Ntp333
Rp334
(dp335
g7
I19
sb(lp336
(S'09:49'
p337
S'10:29'
p338
tp339
a(S'13:09'
p340
S'13:47'
p341
tp342
a(S'16:13'
p343
S'16:50'
p344
tp345
a(S'18:06'
p346
S'18:44'
p347
tp348
a(S'19:45'
p349
Ntp350
asg1
(g2
g3
Ntp351
Rp352
(dp353
g7
I20
sb(lp354
(S'09:50'
p355
S'10:29'
p356
tp357
a(S'13:07'
p358
S'13:46'
p359
tp360
a(S'16:12'
p361
S'16:56'
p362
tp363
a(S'18:15'
p364
S'18:54'
p365
tp366
as.