(dp0
ccopy_reg
_reconstructor
p1
(cmachine
ClosedMachine
p2
c__builtin__
object
p3
Ntp4
Rp5
(dp6
S'machine_id'
p7
I1
sb(lp8
(S'07:25'
p9
S'08:03'
p10
tp11
a(S'09:39'
p12
S'10:19'
p13
tp14
a(S'12:40'
p15
S'13:19'
p16
tp17
a(S'18:08'
p18
S'18:42'
p19
tp20
a(S'19:38'
p21
Ntp22
asg1
(g2
g3
Ntp23
Rp24
(dp25
g7
I2
sb(lp26
(S'07:25'
p27
S'08:17'
p28
tp29
a(S'09:40'
p30
S'10:19'
p31
tp32
a(S'12:40'
p33
S'13:14'
p34
tp35
a(S'18:09'
p36
S'18:50'
p37
tp38
a(S'19:41'
p39
Ntp40
asg1
(g2
g3
Ntp41
Rp42
(dp43
g7
I3
sb(lp44
(S'07:25'
p45
S'08:17'
p46
tp47
a(S'09:40'
p48
S'10:13'
p49
tp50
a(S'11:56'
p51
S'12:33'
p52
tp53
a(S'14:14'
p54
S'14:44'
p55
tp56
a(S'17:00'
p57
S'18:11'
p58
tp59
a(S'19:00'
p60
S'19:33'
p61
tp62
a(S'19:52'
p63
Ntp64
asg1
(g2
g3
Ntp65
Rp66
(dp67
g7
I4
sb(lp68
(S'08:20'
p69
S'08:58'
p70
tp71
a(S'09:40'
p72
S'10:16'
p73
tp74
a(S'11:56'
p75
S'12:33'
p76
tp77
a(S'14:14'
p78
S'14:51'
p79
tp80
a(S'16:18'
p81
S'17:01'
p82
tp83
a(S'17:44'
p84
S'18:36'
p85
tp86
a(S'19:00'
p87
S'19:39'
p88
tp89
asg1
(g2
g3
Ntp90
Rp91
(dp92
g7
I5
sb(lp93
(S'08:20'
p94
S'08:57'
p95
tp96
a(S'12:40'
p97
S'13:14'
p98
tp99
a(S'14:14'
p100
S'14:51'
p101
tp102
a(S'15:29'
p103
S'16:02'
p104
tp105
a(S'17:44'
p106
S'18:23'
p107
tp108
a(S'19:00'
p109
S'19:39'
p110
tp111
asg1
(g2
g3
Ntp112
Rp113
(dp114
g7
I6
sb(lp115
sg1
(g2
g3
Ntp116
Rp117
(dp118
g7
I7
sb(lp119
(S'11:26'
p120
S'12:04'
p121
tp122
a(S'15:21'
p123
S'15:59'
p124
tp125
a(S'19:04'
p126
S'19:43'
p127
tp128
asg1
(cmachine
BrokenDownMachine
p129
g3
Ntp130
Rp131
(dp132
g7
I8
sb(lp133
S'Ute av drift'
p134
asg1
(g2
g3
Ntp135
Rp136
(dp137
g7
I9
sb(lp138
(S'11:18'
p139
S'11:55'
p140
tp141
a(S'13:37'
p142
S'14:13'
p143
tp144
a(S'17:41'
p145
S'18:26'
p146
tp147
a(S'19:05'
p148
S'19:43'
p149
tp150
asg1
(g2
g3
Ntp151
Rp152
(dp153
g7
I10
sb(lp154
(S'11:18'
p155
S'11:52'
p156
tp157
a(S'13:37'
p158
S'14:18'
p159
tp160
a(S'16:46'
p161
S'17:24'
p162
tp163
a(S'19:05'
p164
S'19:39'
p165
tp166
asg1
(g2
g3
Ntp167
Rp168
(dp169
g7
I11
sb(lp170
(S'10:16'
p171
S'10:55'
p172
tp173
a(S'16:46'
p174
S'17:16'
p175
tp176
a(S'17:46'
p177
S'18:16'
p178
tp179
a(S'19:13'
p180
S'19:51'
p181
tp182
asg1
(g2
g3
Ntp183
Rp184
(dp185
g7
I12
sb(lp186
(S'10:16'
p187
S'10:53'
p188
tp189
a(S'18:10'
p190
S'18:44'
p191
tp192
asg1
(g2
g3
Ntp193
Rp194
(dp195
g7
I13
sb(lp196
(S'10:03'
p197
S'10:42'
p198
tp199
a(S'12:54'
p200
S'13:33'
p201
tp202
asg1
(g2
g3
Ntp203
Rp204
(dp205
g7
I14
sb(lp206
(S'10:03'
p207
S'10:41'
p208
tp209
a(S'12:54'
p210
S'13:31'
p211
tp212
a(S'14:57'
p213
S'15:51'
p214
tp215
a(S'17:46'
p216
S'18:16'
p217
tp218
asg1
(g2
g3
Ntp219
Rp220
(dp221
g7
I15
sb(lp222
(S'10:03'
p223
S'10:43'
p224
tp225
a(S'14:57'
p226
S'15:50'
p227
tp228
a(S'17:46'
p229
S'18:17'
p230
tp231
asg1
(g2
g3
Ntp232
Rp233
(dp234
g7
I16
sb(lp235
(S'15:11'
p236
S'16:07'
p237
tp238
a(S'16:54'
p239
S'17:34'
p240
tp241
asg1
(g2
g3
Ntp242
Rp243
(dp244
g7
I17
sb(lp245
(S'15:12'
p246
S'15:59'
p247
tp248
a(S'16:54'
p249
S'17:31'
p250
tp251
asg1
(g2
g3
Ntp252
Rp253
(dp254
g7
I18
sb(lp255
(S'09:23'
p256
S'10:00'
p257
tp258
a(S'16:54'
p259
S'17:31'
p260
tp261
a(S'19:05'
p262
S'19:55'
p263
tp264
asg1
(g2
g3
Ntp265
Rp266
(dp267
g7
I19
sb(lp268
(S'11:28'
p269
S'12:12'
p270
tp271
a(S'12:40'
p272
S'13:17'
p273
tp274
a(S'16:19'
p275
S'16:56'
p276
tp277
asg1
(g2
g3
Ntp278
Rp279
(dp280
g7
I20
sb(lp281
(S'11:23'
p282
S'11:25'
p283
tp284
a(S'11:26'
p285
S'12:04'
p286
tp287
as.