(dp0
ccopy_reg
_reconstructor
p1
(cmachine
ClosedMachine
p2
c__builtin__
object
p3
Ntp4
Rp5
(dp6
S'machine_id'
p7
I1
sb(lp8
(S'07:09'
p9
S'07:47'
p10
tp11
a(S'08:14'
p12
S'09:02'
p13
tp14
a(S'09:53'
p15
S'10:39'
p16
tp17
a(S'11:29'
p18
S'12:07'
p19
tp20
a(S'12:51'
p21
S'13:30'
p22
tp23
a(S'14:10'
p24
S'14:49'
p25
tp26
a(S'17:03'
p27
S'17:41'
p28
tp29
asg1
(g2
g3
Ntp30
Rp31
(dp32
g7
I2
sb(lp33
(S'07:09'
p34
S'07:46'
p35
tp36
a(S'08:14'
p37
S'09:02'
p38
tp39
a(S'09:53'
p40
S'10:43'
p41
tp42
a(S'11:06'
p43
S'11:57'
p44
tp45
a(S'14:10'
p46
S'15:01'
p47
tp48
a(S'19:23'
p49
Ntp50
asg1
(g2
g3
Ntp51
Rp52
(dp53
g7
I3
sb(lp54
(S'07:09'
p55
S'07:46'
p56
tp57
a(S'08:14'
p58
S'08:52'
p59
tp60
a(S'09:53'
p61
S'10:32'
p62
tp63
a(S'10:57'
p64
S'11:35'
p65
tp66
a(S'12:18'
p67
S'13:12'
p68
tp69
a(S'17:04'
p70
S'17:41'
p71
tp72
a(S'19:23'
p73
Ntp74
asg1
(g2
g3
Ntp75
Rp76
(dp77
g7
I4
sb(lp78
(S'09:53'
p79
S'10:32'
p80
tp81
a(S'10:57'
p82
S'11:35'
p83
tp84
a(S'12:51'
p85
S'13:30'
p86
tp87
a(S'14:11'
p88
S'14:45'
p89
tp90
a(S'19:00'
p91
S'19:39'
p92
tp93
asg1
(g2
g3
Ntp94
Rp95
(dp96
g7
I5
sb(lp97
(S'09:56'
p98
S'10:51'
p99
tp100
a(S'10:58'
p101
S'11:31'
p102
tp103
a(S'12:51'
p104
S'13:42'
p105
tp106
a(S'14:11'
p107
S'14:45'
p108
tp109
a(S'19:00'
p110
S'19:39'
p111
tp112
asg1
(g2
g3
Ntp113
Rp114
(dp115
g7
I6
sb(lp116
(S'16:59'
p117
S'17:45'
p118
tp119
asg1
(g2
g3
Ntp120
Rp121
(dp122
g7
I7
sb(lp123
(S'16:54'
p124
S'17:24'
p125
tp126
a(S'17:32'
p127
S'18:01'
p128
tp129
a(S'19:47'
p130
Ntp131
asg1
(g2
g3
Ntp132
Rp133
(dp134
g7
I8
sb(lp135
(S'07:28'
p136
S'07:58'
p137
tp138
a(S'11:29'
p139
S'12:20'
p140
tp141
a(S'16:39'
p142
S'17:24'
p143
tp144
a(S'17:50'
p145
S'18:36'
p146
tp147
asg1
(g2
g3
Ntp148
Rp149
(dp150
g7
I9
sb(lp151
(S'07:21'
p152
S'08:10'
p153
tp154
a(S'10:10'
p155
S'10:48'
p156
tp157
a(S'11:30'
p158
S'12:16'
p159
tp160
a(S'16:54'
p161
S'17:31'
p162
tp163
asg1
(g2
g3
Ntp164
Rp165
(dp166
g7
I10
sb(lp167
(S'07:28'
p168
S'08:09'
p169
tp170
a(S'10:10'
p171
S'10:48'
p172
tp173
a(S'11:27'
p174
S'12:07'
p175
tp176
a(S'15:42'
p177
S'16:30'
p178
tp179
asg1
(g2
g3
Ntp180
Rp181
(dp182
g7
I11
sb(lp183
(S'07:21'
p184
S'08:05'
p185
tp186
a(S'10:35'
p187
S'11:14'
p188
tp189
a(S'12:15'
p190
S'12:53'
p191
tp192
a(S'13:48'
p193
S'14:25'
p194
tp195
a(S'15:42'
p196
S'16:21'
p197
tp198
asg1
(g2
g3
Ntp199
Rp200
(dp201
g7
I12
sb(lp202
(S'07:21'
p203
S'07:58'
p204
tp205
a(S'10:35'
p206
S'11:12'
p207
tp208
a(S'12:15'
p209
S'13:05'
p210
tp211
a(S'13:48'
p212
S'14:27'
p213
tp214
a(S'15:42'
p215
S'16:21'
p216
tp217
asg1
(g2
g3
Ntp218
Rp219
(dp220
g7
I13
sb(lp221
(S'10:35'
p222
S'11:09'
p223
tp224
a(S'16:51'
p225
S'17:36'
p226
tp227
asg1
(g2
g3
Ntp228
Rp229
(dp230
g7
I14
sb(lp231
(S'08:46'
p232
S'09:23'
p233
tp234
a(S'11:28'
p235
S'12:17'
p236
tp237
a(S'16:45'
p238
S'17:25'
p239
tp240
a(S'18:30'
p241
S'19:31'
p242
tp243
asg1
(cmachine
BrokenDownMachine
p244
g3
Ntp245
Rp246
(dp247
g7
I15
sb(lp248
S'Ute av drift'
p249
asg1
(g2
g3
Ntp250
Rp251
(dp252
g7
I16
sb(lp253
(S'07:29'
p254
S'08:06'
p255
tp256
a(S'11:33'
p257
S'12:19'
p258
tp259
a(S'16:44'
p260
S'17:33'
p261
tp262
a(S'18:28'
p263
S'19:08'
p264
tp265
asg1
(g2
g3
Ntp266
Rp267
(dp268
g7
I17
sb(lp269
(S'07:25'
p270
S'08:16'
p271
tp272
a(S'16:45'
p273
S'17:22'
p274
tp275
a(S'17:31'
p276
S'17:37'
p277
tp278
a(S'18:54'
p279
S'19:40'
p280
tp281
asg1
(g2
g3
Ntp282
Rp283
(dp284
g7
I18
sb(lp285
(S'11:30'
p286
S'11:35'
p287
tp288
a(S'16:51'
p289
S'16:56'
p290
tp291
asg1
(g2
g3
Ntp292
Rp293
(dp294
g7
I19
sb(lp295
(S'07:26'
p296
S'08:02'
p297
tp298
a(S'14:14'
p299
S'14:47'
p300
tp301
a(S'16:09'
p302
S'16:46'
p303
tp304
a(S'17:29'
p305
S'18:08'
p306
tp307
asg1
(g2
g3
Ntp308
Rp309
(dp310
g7
I20
sb(lp311
(S'16:09'
p312
S'16:48'
p313
tp314
a(S'17:02'
p315
S'17:48'
p316
tp317
as.