(dp0
ccopy_reg
_reconstructor
p1
(cmachine
ClosedMachine
p2
c__builtin__
object
p3
Ntp4
Rp5
(dp6
S'machine_id'
p7
I1
sb(lp8
(S'11:04'
p9
S'11:56'
p10
tp11
a(S'14:00'
p12
S'14:30'
p13
tp14
a(S'15:35'
p15
S'16:16'
p16
tp17
a(S'17:15'
p18
S'18:00'
p19
tp20
a(S'19:14'
p21
S'19:52'
p22
tp23
asg1
(g2
g3
Ntp24
Rp25
(dp26
g7
I2
sb(lp27
(S'08:47'
p28
S'09:34'
p29
tp30
a(S'13:55'
p31
S'14:33'
p32
tp33
a(S'15:35'
p34
S'16:13'
p35
tp36
a(S'17:14'
p37
S'18:00'
p38
tp39
a(S'19:14'
p40
Ntp41
asg1
(g2
g3
Ntp42
Rp43
(dp44
g7
I3
sb(lp45
(S'08:45'
p46
S'09:22'
p47
tp48
a(S'11:06'
p49
S'11:52'
p50
tp51
a(S'13:55'
p52
S'14:42'
p53
tp54
a(S'15:36'
p55
S'16:15'
p56
tp57
a(S'17:15'
p58
S'18:00'
p59
tp60
a(S'18:46'
p61
S'19:23'
p62
tp63
asg1
(g2
g3
Ntp64
Rp65
(dp66
g7
I4
sb(lp67
(S'07:44'
p68
S'08:23'
p69
tp70
a(S'08:44'
p71
S'09:24'
p72
tp73
a(S'09:41'
p74
S'10:18'
p75
tp76
a(S'15:36'
p77
S'16:15'
p78
tp79
a(S'19:25'
p80
Ntp81
asg1
(g2
g3
Ntp82
Rp83
(dp84
g7
I5
sb(lp85
(S'07:45'
p86
S'08:22'
p87
tp88
a(S'08:44'
p89
S'09:24'
p90
tp91
a(S'09:41'
p92
S'10:19'
p93
tp94
a(S'15:36'
p95
S'16:13'
p96
tp97
a(S'18:40'
p98
S'19:10'
p99
tp100
a(S'19:44'
p101
Ntp102
asg1
(g2
g3
Ntp103
Rp104
(dp105
g7
I6
sb(lp106
(S'15:36'
p107
S'16:05'
p108
tp109
a(S'16:28'
p110
S'16:57'
p111
tp112
a(S'19:58'
p113
Ntp114
asg1
(g2
g3
Ntp115
Rp116
(dp117
g7
I7
sb(lp118
(S'09:05'
p119
S'09:44'
p120
tp121
a(S'11:40'
p122
S'12:19'
p123
tp124
a(S'12:33'
p125
S'13:11'
p126
tp127
a(S'14:42'
p128
S'15:30'
p129
tp130
a(S'15:52'
p131
S'16:31'
p132
tp133
a(S'18:51'
p134
S'19:29'
p135
tp136
asg1
(cmachine
BrokenDownMachine
p137
g3
Ntp138
Rp139
(dp140
g7
I8
sb(lp141
S'Ute av drift'
p142
asg1
(g2
g3
Ntp143
Rp144
(dp145
g7
I9
sb(lp146
(S'13:57'
p147
S'14:44'
p148
tp149
a(S'15:03'
p150
S'15:56'
p151
tp152
a(S'19:57'
p153
Ntp154
asg1
(g2
g3
Ntp155
Rp156
(dp157
g7
I10
sb(lp158
(S'19:58'
p159
Ntp160
asg1
(g2
g3
Ntp161
Rp162
(dp163
g7
I11
sb(lp164
(S'12:38'
p165
S'13:17'
p166
tp167
a(S'13:56'
p168
S'14:38'
p169
tp170
a(S'15:52'
p171
S'16:30'
p172
tp173
a(S'19:59'
p174
Ntp175
asg1
(g2
g3
Ntp176
Rp177
(dp178
g7
I12
sb(lp179
(S'15:54'
p180
S'16:27'
p181
tp182
a(S'19:59'
p183
Ntp184
asg1
(g2
g3
Ntp185
Rp186
(dp187
g7
I13
sb(lp188
(S'10:04'
p189
S'11:00'
p190
tp191
a(S'13:59'
p192
S'14:36'
p193
tp194
a(S'15:13'
p195
S'15:50'
p196
tp197
asg1
(g2
g3
Ntp198
Rp199
(dp200
g7
I14
sb(lp201
(S'10:03'
p202
S'10:55'
p203
tp204
a(S'14:22'
p205
S'14:52'
p206
tp207
a(S'15:37'
p208
S'16:15'
p209
tp210
asg1
(g2
g3
Ntp211
Rp212
(dp213
g7
I15
sb(lp214
(S'10:04'
p215
S'10:57'
p216
tp217
a(S'11:05'
p218
S'11:43'
p219
tp220
a(S'13:14'
p221
S'13:51'
p222
tp223
a(S'14:22'
p224
S'15:01'
p225
tp226
a(S'15:37'
p227
S'16:25'
p228
tp229
asg1
(g2
g3
Ntp230
Rp231
(dp232
g7
I16
sb(lp233
(S'13:16'
p234
S'13:55'
p235
tp236
a(S'13:59'
p237
S'14:45'
p238
tp239
a(S'15:12'
p240
S'15:52'
p241
tp242
a(S'18:49'
p243
S'19:26'
p244
tp245
asg1
(g2
g3
Ntp246
Rp247
(dp248
g7
I17
sb(lp249
(S'13:17'
p250
S'14:23'
p251
tp252
a(S'15:15'
p253
S'15:20'
p254
tp255
a(S'15:52'
p256
S'16:42'
p257
tp258
a(S'18:49'
p259
S'19:28'
p260
tp261
asg1
(g2
g3
Ntp262
Rp263
(dp264
g7
I18
sb(lp265
(S'13:08'
p266
S'13:45'
p267
tp268
a(S'14:22'
p269
S'15:10'
p270
tp271
a(S'15:37'
p272
S'16:16'
p273
tp274
a(S'18:49'
p275
S'19:35'
p276
tp277
asg1
(g2
g3
Ntp278
Rp279
(dp280
g7
I19
sb(lp281
(S'12:33'
p282
S'13:12'
p283
tp284
a(S'14:43'
p285
S'15:22'
p286
tp287
a(S'15:37'
p288
S'16:11'
p289
tp290
a(S'16:29'
p291
S'17:06'
p292
tp293
a(S'18:52'
p294
S'19:30'
p295
tp296
asg1
(g2
g3
Ntp297
Rp298
(dp299
g7
I20
sb(lp300
(S'11:03'
p301
S'11:42'
p302
tp303
a(S'16:22'
p304
S'17:00'
p305
tp306
a(S'17:16'
p307
S'17:53'
p308
tp309
a(S'19:44'
p310
Ntp311
as.