(dp0
ccopy_reg
_reconstructor
p1
(cmachine
ClosedMachine
p2
c__builtin__
object
p3
Ntp4
Rp5
(dp6
S'machine_id'
p7
I1
sb(lp8
(S'09:54'
p9
S'10:50'
p10
tp11
a(S'11:20'
p12
S'11:58'
p13
tp14
a(S'12:52'
p15
S'13:43'
p16
tp17
a(S'16:23'
p18
S'17:14'
p19
tp20
a(S'18:14'
p21
S'18:51'
p22
tp23
asg1
(g2
g3
Ntp24
Rp25
(dp26
g7
I2
sb(lp27
(S'09:00'
p28
S'09:39'
p29
tp30
a(S'09:55'
p31
S'10:51'
p32
tp33
a(S'11:20'
p34
S'11:50'
p35
tp36
a(S'12:52'
p37
S'13:32'
p38
tp39
a(S'16:23'
p40
S'17:08'
p41
tp42
a(S'18:14'
p43
S'18:53'
p44
tp45
asg1
(g2
g3
Ntp46
Rp47
(dp48
g7
I3
sb(lp49
(S'09:21'
p50
S'10:00'
p51
tp52
a(S'11:06'
p53
S'11:53'
p54
tp55
a(S'12:11'
p56
S'12:16'
p57
tp58
a(S'13:03'
p59
S'13:42'
p60
tp61
a(S'16:12'
p62
S'16:49'
p63
tp64
asg1
(g2
g3
Ntp65
Rp66
(dp67
g7
I4
sb(lp68
(S'07:33'
p69
S'08:19'
p70
tp71
a(S'09:21'
p72
S'09:59'
p73
tp74
a(S'11:06'
p75
S'11:53'
p76
tp77
a(S'12:18'
p78
S'12:56'
p79
tp80
a(S'15:43'
p81
S'16:21'
p82
tp83
a(S'16:44'
p84
S'17:23'
p85
tp86
a(S'18:14'
p87
S'18:51'
p88
tp89
asg1
(g2
g3
Ntp90
Rp91
(dp92
g7
I5
sb(lp93
(S'08:59'
p94
S'09:44'
p95
tp96
a(S'10:00'
p97
S'10:46'
p98
tp99
a(S'11:28'
p100
S'12:07'
p101
tp102
a(S'12:52'
p103
S'13:32'
p104
tp105
a(S'15:31'
p106
S'16:04'
p107
tp108
asg1
(g2
g3
Ntp109
Rp110
(dp111
g7
I6
sb(lp112
(S'08:50'
p113
S'09:37'
p114
tp115
a(S'11:06'
p116
S'11:53'
p117
tp118
a(S'12:20'
p119
S'13:02'
p120
tp121
a(S'16:17'
p122
S'16:56'
p123
tp124
asg1
(g2
g3
Ntp125
Rp126
(dp127
g7
I7
sb(lp128
(S'08:50'
p129
S'09:37'
p130
tp131
a(S'11:58'
p132
S'12:38'
p133
tp134
a(S'12:59'
p135
S'13:36'
p136
tp137
a(S'16:17'
p138
S'16:57'
p139
tp140
asg1
(g2
g3
Ntp141
Rp142
(dp143
g7
I8
sb(lp144
(S'12:22'
p145
S'13:01'
p146
tp147
a(S'13:51'
p148
S'14:31'
p149
tp150
a(S'16:31'
p151
S'17:10'
p152
tp153
a(S'18:24'
p154
S'19:03'
p155
tp156
asg1
(g2
g3
Ntp157
Rp158
(dp159
g7
I9
sb(lp160
(S'16:31'
p161
S'17:08'
p162
tp163
a(S'18:24'
p164
S'19:03'
p165
tp166
asg1
(g2
g3
Ntp167
Rp168
(dp169
g7
I10
sb(lp170
(S'12:07'
p171
S'13:06'
p172
tp173
a(S'15:58'
p174
S'16:45'
p175
tp176
a(S'18:24'
p177
S'19:02'
p178
tp179
asg1
(g2
g3
Ntp180
Rp181
(dp182
g7
I11
sb(lp183
(S'09:43'
p184
S'10:13'
p185
tp186
a(S'11:14'
p187
S'12:07'
p188
tp189
a(S'15:58'
p190
S'16:45'
p191
tp192
asg1
(g2
g3
Ntp193
Rp194
(dp195
g7
I12
sb(lp196
(S'09:43'
p197
S'10:22'
p198
tp199
a(S'11:15'
p200
S'11:49'
p201
tp202
a(S'11:59'
p203
S'12:48'
p204
tp205
a(S'15:58'
p206
S'16:35'
p207
tp208
asg1
(g2
g3
Ntp209
Rp210
(dp211
g7
I13
sb(lp212
(S'09:43'
p213
S'10:23'
p214
tp215
a(S'11:15'
p216
S'12:06'
p217
tp218
a(S'12:46'
p219
S'13:35'
p220
tp221
a(S'15:05'
p222
S'15:35'
p223
tp224
asg1
(g2
g3
Ntp225
Rp226
(dp227
g7
I14
sb(lp228
(S'09:43'
p229
S'10:21'
p230
tp231
a(S'11:35'
p232
S'12:08'
p233
tp234
a(S'12:46'
p235
S'13:33'
p236
tp237
a(S'15:05'
p238
S'15:43'
p239
tp240
a(S'17:01'
p241
S'17:48'
p242
tp243
asg1
(cmachine
BrokenDownMachine
p244
g3
Ntp245
Rp246
(dp247
g7
I15
sb(lp248
S'Ute av drift'
p249
asg1
(g2
g3
Ntp250
Rp251
(dp252
g7
I16
sb(lp253
(S'11:36'
p254
S'12:12'
p255
tp256
a(S'15:05'
p257
S'15:44'
p258
tp259
a(S'18:22'
p260
S'18:59'
p261
tp262
asg1
(g2
g3
Ntp263
Rp264
(dp265
g7
I17
sb(lp266
(S'08:35'
p267
S'09:26'
p268
tp269
a(S'10:43'
p270
S'11:16'
p271
tp272
a(S'11:22'
p273
S'11:59'
p274
tp275
a(S'12:50'
p276
S'13:29'
p277
tp278
a(S'15:07'
p279
S'15:47'
p280
tp281
asg1
(g2
g3
Ntp282
Rp283
(dp284
g7
I18
sb(lp285
(S'11:23'
p286
S'11:28'
p287
tp288
a(S'12:52'
p289
S'12:57'
p290
tp291
asg1
(g2
g3
Ntp292
Rp293
(dp294
g7
I19
sb(lp295
(S'08:51'
p296
S'09:38'
p297
tp298
a(S'11:33'
p299
S'12:03'
p300
tp301
a(S'14:52'
p302
S'15:26'
p303
tp304
a(S'16:19'
p305
S'16:58'
p306
tp307
asg1
(g2
g3
Ntp308
Rp309
(dp310
g7
I20
sb(lp311
(S'09:59'
p312
S'10:48'
p313
tp314
a(S'11:55'
p315
S'12:26'
p316
tp317
as.