(dp0
ccopy_reg
_reconstructor
p1
(cmachine
ClosedMachine
p2
c__builtin__
object
p3
Ntp4
Rp5
(dp6
S'machine_id'
p7
I1
sb(lp8
(S'07:34'
p9
S'08:12'
p10
tp11
a(S'13:06'
p12
S'13:45'
p13
tp14
a(S'14:26'
p15
S'15:04'
p16
tp17
a(S'15:29'
p18
S'16:19'
p19
tp20
a(S'18:20'
p21
S'18:59'
p22
tp23
a(S'19:32'
p24
Ntp25
asg1
(g2
g3
Ntp26
Rp27
(dp28
g7
I2
sb(lp29
(S'07:34'
p30
S'08:13'
p31
tp32
a(S'12:25'
p33
S'13:11'
p34
tp35
a(S'14:26'
p36
S'15:05'
p37
tp38
a(S'15:29'
p39
S'16:08'
p40
tp41
a(S'18:20'
p42
S'18:59'
p43
tp44
a(S'19:32'
p45
Ntp46
asg1
(g2
g3
Ntp47
Rp48
(dp49
g7
I3
sb(lp50
(S'07:35'
p51
S'08:11'
p52
tp53
a(S'12:25'
p54
S'13:14'
p55
tp56
a(S'14:26'
p57
S'15:05'
p58
tp59
a(S'15:29'
p60
S'16:18'
p61
tp62
a(S'18:30'
p63
S'19:15'
p64
tp65
asg1
(g2
g3
Ntp66
Rp67
(dp68
g7
I4
sb(lp69
(S'08:03'
p70
S'08:40'
p71
tp72
a(S'11:51'
p73
S'12:30'
p74
tp75
a(S'14:26'
p76
S'15:05'
p77
tp78
a(S'16:45'
p79
S'17:43'
p80
tp81
a(S'18:30'
p82
S'19:26'
p83
tp84
asg1
(g2
g3
Ntp85
Rp86
(dp87
g7
I5
sb(lp88
(S'07:12'
p89
S'07:42'
p90
tp91
a(S'08:04'
p92
S'08:57'
p93
tp94
a(S'11:51'
p95
S'12:29'
p96
tp97
a(S'14:26'
p98
S'15:05'
p99
tp100
a(S'15:30'
p101
S'16:18'
p102
tp103
asg1
(g2
g3
Ntp104
Rp105
(dp106
g7
I6
sb(lp107
(S'09:40'
p108
S'10:18'
p109
tp110
a(S'13:02'
p111
S'13:48'
p112
tp113
a(S'14:25'
p114
S'15:02'
p115
tp116
a(S'16:47'
p117
S'17:24'
p118
tp119
asg1
(g2
g3
Ntp120
Rp121
(dp122
g7
I7
sb(lp123
(S'08:05'
p124
S'08:48'
p125
tp126
a(S'13:01'
p127
S'13:40'
p128
tp129
a(S'14:25'
p130
S'15:04'
p131
tp132
a(S'17:04'
p133
S'17:55'
p134
tp135
asg1
(cmachine
BrokenDownMachine
p136
g3
Ntp137
Rp138
(dp139
g7
I8
sb(lp140
S'Ute av drift'
p141
asg1
(g2
g3
Ntp142
Rp143
(dp144
g7
I9
sb(lp145
(S'13:06'
p146
S'13:45'
p147
tp148
a(S'14:03'
p149
S'14:40'
p150
tp151
a(S'14:41'
p152
S'15:18'
p153
tp154
a(S'18:25'
p155
S'19:02'
p156
tp157
asg1
(g2
g3
Ntp158
Rp159
(dp160
g7
I10
sb(lp161
sg1
(g2
g3
Ntp162
Rp163
(dp164
g7
I11
sb(lp165
(S'12:49'
p166
S'13:19'
p167
tp168
a(S'14:03'
p169
S'14:42'
p170
tp171
a(S'14:50'
p172
S'15:19'
p173
tp174
a(S'15:58'
p175
S'16:46'
p176
tp177
a(S'18:25'
p178
S'19:03'
p179
tp180
asg1
(g2
g3
Ntp181
Rp182
(dp183
g7
I12
sb(lp184
(S'12:49'
p185
S'13:28'
p186
tp187
a(S'14:03'
p188
S'14:43'
p189
tp190
a(S'14:47'
p191
S'15:20'
p192
tp193
a(S'15:58'
p194
S'16:47'
p195
tp196
a(S'18:25'
p197
S'19:04'
p198
tp199
asg1
(g2
g3
Ntp200
Rp201
(dp202
g7
I13
sb(lp203
(S'13:01'
p204
S'14:10'
p205
tp206
a(S'14:36'
p207
S'15:14'
p208
tp209
a(S'18:34'
p210
S'19:06'
p211
tp212
a(S'19:38'
p213
Ntp214
asg1
(g2
g3
Ntp215
Rp216
(dp217
g7
I14
sb(lp218
(S'09:04'
p219
S'09:43'
p220
tp221
a(S'13:01'
p222
S'13:45'
p223
tp224
a(S'14:29'
p225
S'15:20'
p226
tp227
a(S'16:55'
p228
S'17:46'
p229
tp230
asg1
(g2
g3
Ntp231
Rp232
(dp233
g7
I15
sb(lp234
(S'09:04'
p235
S'09:42'
p236
tp237
a(S'13:02'
p238
S'13:41'
p239
tp240
a(S'14:29'
p241
S'15:10'
p242
tp243
a(S'16:55'
p244
S'18:22'
p245
tp246
asg1
(g2
g3
Ntp247
Rp248
(dp249
g7
I16
sb(lp250
(S'11:48'
p251
S'12:27'
p252
tp253
a(S'13:02'
p254
S'13:40'
p255
tp256
a(S'14:29'
p257
S'15:09'
p258
tp259
a(S'16:41'
p260
S'17:20'
p261
tp262
a(S'18:06'
p263
S'18:53'
p264
tp265
asg1
(g2
g3
Ntp266
Rp267
(dp268
g7
I17
sb(lp269
(S'07:41'
p270
S'08:32'
p271
tp272
a(S'13:02'
p273
S'13:40'
p274
tp275
a(S'14:29'
p276
S'15:08'
p277
tp278
a(S'15:58'
p279
S'16:45'
p280
tp281
a(S'18:04'
p282
S'19:04'
p283
tp284
asg1
(g2
g3
Ntp285
Rp286
(dp287
g7
I18
sb(lp288
(S'13:02'
p289
S'13:42'
p290
tp291
a(S'14:34'
p292
S'15:12'
p293
tp294
a(S'19:03'
p295
Ntp296
asg1
(g2
g3
Ntp297
Rp298
(dp299
g7
I19
sb(lp300
(S'13:02'
p301
S'13:41'
p302
tp303
a(S'14:35'
p304
S'15:12'
p305
tp306
a(S'17:06'
p307
S'17:43'
p308
tp309
asg1
(g2
g3
Ntp310
Rp311
(dp312
g7
I20
sb(lp313
(S'13:00'
p314
S'13:37'
p315
tp316
a(S'14:29'
p317
S'15:06'
p318
tp319
a(S'17:02'
p320
S'17:42'
p321
tp322
as.