(dp0
ccopy_reg
_reconstructor
p1
(cmachine
ClosedMachine
p2
c__builtin__
object
p3
Ntp4
Rp5
(dp6
S'machine_id'
p7
I1
sb(lp8
(S'07:10'
p9
S'07:47'
p10
tp11
a(S'10:36'
p12
S'11:16'
p13
tp14
a(S'11:47'
p15
S'12:38'
p16
tp17
a(S'13:02'
p18
S'13:39'
p19
tp20
a(S'14:21'
p21
S'14:59'
p22
tp23
a(S'15:04'
p24
S'15:42'
p25
tp26
a(S'15:53'
p27
S'16:32'
p28
tp29
a(S'17:07'
p30
S'17:52'
p31
tp32
a(S'19:08'
p33
S'19:47'
p34
tp35
asg1
(g2
g3
Ntp36
Rp37
(dp38
g7
I2
sb(lp39
(S'07:10'
p40
S'07:48'
p41
tp42
a(S'11:47'
p43
S'12:39'
p44
tp45
a(S'13:02'
p46
S'13:41'
p47
tp48
a(S'14:00'
p49
S'14:37'
p50
tp51
a(S'14:41'
p52
S'15:19'
p53
tp54
a(S'15:33'
p55
S'16:20'
p56
tp57
a(S'16:43'
p58
S'17:13'
p59
tp60
asg1
(g2
g3
Ntp61
Rp62
(dp63
g7
I3
sb(lp64
(S'12:11'
p65
S'12:48'
p66
tp67
a(S'13:24'
p68
S'14:02'
p69
tp70
a(S'14:05'
p71
S'14:45'
p72
tp73
a(S'14:54'
p74
S'15:23'
p75
tp76
a(S'15:54'
p77
S'16:34'
p78
tp79
a(S'17:36'
p80
S'18:27'
p81
tp82
asg1
(g2
g3
Ntp83
Rp84
(dp85
g7
I4
sb(lp86
(S'09:55'
p87
S'10:34'
p88
tp89
a(S'11:21'
p90
S'12:00'
p91
tp92
a(S'13:02'
p93
S'13:39'
p94
tp95
a(S'14:20'
p96
S'14:54'
p97
tp98
a(S'15:07'
p99
S'15:43'
p100
tp101
a(S'15:55'
p102
S'16:34'
p103
tp104
a(S'16:56'
p105
S'17:42'
p106
tp107
a(S'18:00'
p108
S'18:39'
p109
tp110
a(S'18:46'
p111
S'19:26'
p112
tp113
a(S'19:45'
p114
Ntp115
asg1
(g2
g3
Ntp116
Rp117
(dp118
g7
I5
sb(lp119
(S'08:27'
p120
S'08:57'
p121
tp122
a(S'09:55'
p123
S'10:35'
p124
tp125
a(S'11:21'
p126
S'11:59'
p127
tp128
a(S'12:48'
p129
S'14:16'
p130
tp131
a(S'14:32'
p132
S'15:11'
p133
tp134
a(S'15:55'
p135
S'16:35'
p136
tp137
a(S'17:07'
p138
S'17:54'
p139
tp140
a(S'18:44'
p141
S'19:14'
p142
tp143
asg1
(g2
g3
Ntp144
Rp145
(dp146
g7
I6
sb(lp147
(S'11:19'
p148
S'12:17'
p149
tp150
a(S'13:02'
p151
S'13:39'
p152
tp153
a(S'14:23'
p154
S'15:10'
p155
tp156
a(S'15:43'
p157
S'16:20'
p158
tp159
a(S'16:41'
p160
S'17:18'
p161
tp162
a(S'19:29'
p163
Ntp164
asg1
(g2
g3
Ntp165
Rp166
(dp167
g7
I7
sb(lp168
(S'11:20'
p169
S'11:33'
p170
tp171
a(S'11:37'
p172
S'12:02'
p173
tp174
a(S'12:42'
p175
S'13:33'
p176
tp177
a(S'14:42'
p178
S'15:15'
p179
tp180
a(S'15:28'
p181
S'15:33'
p182
tp183
a(S'15:55'
p184
S'16:43'
p185
tp186
a(S'17:07'
p187
S'17:46'
p188
tp189
a(S'18:18'
p190
S'19:05'
p191
tp192
asg1
(g2
g3
Ntp193
Rp194
(dp195
g7
I8
sb(lp196
(S'11:26'
p197
S'12:05'
p198
tp199
a(S'13:23'
p200
S'14:00'
p201
tp202
a(S'14:23'
p203
S'15:00'
p204
tp205
a(S'15:06'
p206
S'15:39'
p207
tp208
a(S'16:09'
p209
S'16:48'
p210
tp211
a(S'17:07'
p212
S'17:46'
p213
tp214
a(S'18:19'
p215
S'19:05'
p216
tp217
a(S'19:50'
p218
Ntp219
asg1
(g2
g3
Ntp220
Rp221
(dp222
g7
I9
sb(lp223
(S'10:11'
p224
S'10:49'
p225
tp226
a(S'12:02'
p227
S'12:43'
p228
tp229
a(S'13:23'
p230
S'14:03'
p231
tp232
a(S'14:22'
p233
S'15:11'
p234
tp235
a(S'15:44'
p236
S'16:23'
p237
tp238
a(S'16:41'
p239
S'17:11'
p240
tp241
a(S'17:36'
p242
S'18:15'
p243
tp244
a(S'18:32'
p245
S'19:19'
p246
tp247
asg1
(g2
g3
Ntp248
Rp249
(dp250
g7
I10
sb(lp251
(S'10:12'
p252
S'10:49'
p253
tp254
a(S'12:12'
p255
S'12:52'
p256
tp257
a(S'13:24'
p258
S'14:03'
p259
tp260
a(S'14:22'
p261
S'14:55'
p262
tp263
a(S'15:05'
p264
S'15:36'
p265
tp266
a(S'15:54'
p267
S'16:31'
p268
tp269
a(S'16:53'
p270
S'17:44'
p271
tp272
a(S'18:00'
p273
S'18:39'
p274
tp275
a(S'18:44'
p276
S'19:18'
p277
tp278
a(S'19:29'
p279
Ntp280
asg1
(g2
g3
Ntp281
Rp282
(dp283
g7
I11
sb(lp284
(S'10:12'
p285
S'10:50'
p286
tp287
a(S'12:12'
p288
S'12:42'
p289
tp290
a(S'13:24'
p291
S'14:22'
p292
tp293
a(S'14:25'
p294
S'15:04'
p295
tp296
a(S'15:42'
p297
S'16:22'
p298
tp299
a(S'16:38'
p300
S'17:28'
p301
tp302
a(S'17:32'
p303
S'18:18'
p304
tp305
a(S'18:29'
p306
S'19:16'
p307
tp308
asg1
(g2
g3
Ntp309
Rp310
(dp311
g7
I12
sb(lp312
(S'13:25'
p313
S'14:11'
p314
tp315
a(S'14:24'
p316
S'15:01'
p317
tp318
a(S'15:53'
p319
S'16:32'
p320
tp321
a(S'16:57'
p322
S'17:56'
p323
tp324
a(S'18:32'
p325
S'19:19'
p326
tp327
asg1
(g2
g3
Ntp328
Rp329
(dp330
g7
I13
sb(lp331
(S'10:50'
p332
S'11:27'
p333
tp334
a(S'13:43'
p335
S'14:17'
p336
tp337
a(S'14:26'
p338
S'15:05'
p339
tp340
a(S'16:09'
p341
S'16:56'
p342
tp343
a(S'17:16'
p344
S'17:54'
p345
tp346
a(S'18:05'
p347
S'18:38'
p348
tp349
a(S'19:24'
p350
Ntp351
asg1
(g2
g3
Ntp352
Rp353
(dp354
g7
I14
sb(lp355
(S'09:28'
p356
S'10:06'
p357
tp358
a(S'10:50'
p359
S'11:28'
p360
tp361
a(S'13:43'
p362
S'13:53'
p363
tp364
a(S'14:28'
p365
S'15:09'
p366
tp367
a(S'15:42'
p368
S'16:16'
p369
tp370
a(S'16:38'
p371
S'17:16'
p372
tp373
a(S'17:32'
p374
S'18:30'
p375
tp376
a(S'19:23'
p377
Ntp378
asg1
(cmachine
BrokenDownMachine
p379
g3
Ntp380
Rp381
(dp382
g7
I15
sb(lp383
S'Ute av drift'
p384
asg1
(g2
g3
Ntp385
Rp386
(dp387
g7
I16
sb(lp388
(S'09:32'
p389
S'10:12'
p390
tp391
a(S'11:38'
p392
S'12:18'
p393
tp394
a(S'13:47'
p395
S'14:26'
p396
tp397
a(S'14:32'
p398
S'15:11'
p399
tp400
a(S'15:42'
p401
S'16:20'
p402
tp403
a(S'16:52'
p404
S'17:39'
p405
tp406
a(S'17:42'
p407
S'18:20'
p408
tp409
a(S'18:29'
p410
S'19:16'
p411
tp412
asg1
(g2
g3
Ntp413
Rp414
(dp415
g7
I17
sb(lp416
(S'09:33'
p417
S'10:03'
p418
tp419
a(S'11:39'
p420
S'12:16'
p421
tp422
a(S'13:03'
p423
S'13:40'
p424
tp425
a(S'13:57'
p426
S'14:36'
p427
tp428
a(S'14:39'
p429
S'15:09'
p430
tp431
a(S'15:55'
p432
S'16:37'
p433
tp434
a(S'16:54'
p435
S'17:49'
p436
tp437
a(S'18:05'
p438
S'18:44'
p439
tp440
a(S'19:21'
p441
Ntp442
asg1
(g2
g3
Ntp443
Rp444
(dp445
g7
I18
sb(lp446
(S'11:27'
p447
S'11:32'
p448
tp449
a(S'12:16'
p450
S'12:21'
p451
tp452
a(S'13:37'
p453
S'13:42'
p454
tp455
a(S'15:05'
p456
S'15:10'
p457
tp458
a(S'15:51'
p459
S'15:56'
p460
tp461
a(S'17:40'
p462
S'17:45'
p463
tp464
a(S'18:45'
p465
S'18:50'
p466
tp467
asg1
(g2
g3
Ntp468
Rp469
(dp470
g7
I19
sb(lp471
(S'13:01'
p472
S'13:43'
p473
tp474
a(S'13:48'
p475
S'14:25'
p476
tp477
a(S'15:05'
p478
S'15:43'
p479
tp480
a(S'15:57'
p481
S'16:35'
p482
tp483
a(S'16:54'
p484
S'17:53'
p485
tp486
a(S'18:37'
p487
S'19:25'
p488
tp489
asg1
(g2
g3
Ntp490
Rp491
(dp492
g7
I20
sb(lp493
(S'13:36'
p494
S'14:24'
p495
tp496
a(S'14:51'
p497
S'15:40'
p498
tp499
a(S'16:27'
p500
S'16:57'
p501
tp502
a(S'17:39'
p503
S'18:16'
p504
tp505
a(S'19:30'
p506
Ntp507
as.