(dp0
ccopy_reg
_reconstructor
p1
(cmachine
ClosedMachine
p2
c__builtin__
object
p3
Ntp4
Rp5
(dp6
S'machine_id'
p7
I1
sb(lp8
(S'07:03'
p9
S'07:55'
p10
tp11
a(S'12:16'
p12
S'12:54'
p13
tp14
a(S'15:25'
p15
S'16:04'
p16
tp17
asg1
(g2
g3
Ntp18
Rp19
(dp20
g7
I2
sb(lp21
(S'07:03'
p22
S'07:54'
p23
tp24
a(S'12:16'
p25
S'12:53'
p26
tp27
a(S'15:25'
p28
S'16:04'
p29
tp30
asg1
(g2
g3
Ntp31
Rp32
(dp33
g7
I3
sb(lp34
(S'10:51'
p35
S'11:37'
p36
tp37
a(S'12:41'
p38
S'13:19'
p39
tp40
a(S'13:49'
p41
S'14:28'
p42
tp43
a(S'15:25'
p44
S'16:04'
p45
tp46
a(S'18:50'
p47
S'19:35'
p48
tp49
asg1
(g2
g3
Ntp50
Rp51
(dp52
g7
I4
sb(lp53
(S'10:48'
p54
S'11:27'
p55
tp56
a(S'14:20'
p57
S'14:59'
p58
tp59
a(S'18:12'
p60
S'18:50'
p61
tp62
asg1
(g2
g3
Ntp63
Rp64
(dp65
g7
I5
sb(lp66
(S'16:52'
p67
S'17:39'
p68
tp69
a(S'17:44'
p70
S'18:14'
p71
tp72
a(S'19:36'
p73
Ntp74
asg1
(g2
g3
Ntp75
Rp76
(dp77
g7
I6
sb(lp78
(S'13:05'
p79
S'13:44'
p80
tp81
a(S'17:00'
p82
S'17:38'
p83
tp84
a(S'18:18'
p85
S'18:57'
p86
tp87
asg1
(g2
g3
Ntp88
Rp89
(dp90
g7
I7
sb(lp91
(S'17:00'
p92
S'17:50'
p93
tp94
a(S'18:18'
p95
S'18:55'
p96
tp97
asg1
(cmachine
BrokenDownMachine
p98
g3
Ntp99
Rp100
(dp101
g7
I8
sb(lp102
S'Ute av drift'
p103
a(S'17:20'
p104
S'18:10'
p105
tp106
a(S'19:42'
p107
Ntp108
asg1
(g2
g3
Ntp109
Rp110
(dp111
g7
I9
sb(lp112
(S'08:30'
p113
S'09:59'
p114
tp115
asg1
(g2
g3
Ntp116
Rp117
(dp118
g7
I10
sb(lp119
sg1
(g2
g3
Ntp120
Rp121
(dp122
g7
I11
sb(lp123
sg1
(g2
g3
Ntp124
Rp125
(dp126
g7
I12
sb(lp127
(S'07:54'
p128
S'08:28'
p129
tp130
asg1
(g2
g3
Ntp131
Rp132
(dp133
g7
I13
sb(lp134
(S'14:09'
p135
S'15:00'
p136
tp137
a(S'16:11'
p138
S'16:50'
p139
tp140
a(S'18:14'
p141
S'18:52'
p142
tp143
asg1
(g2
g3
Ntp144
Rp145
(dp146
g7
I14
sb(lp147
(S'08:53'
p148
S'09:31'
p149
tp150
a(S'14:09'
p151
S'14:46'
p152
tp153
a(S'16:11'
p154
S'16:50'
p155
tp156
asg1
(g2
g3
Ntp157
Rp158
(dp159
g7
I15
sb(lp160
(S'08:53'
p161
S'09:34'
p162
tp163
a(S'14:09'
p164
S'14:47'
p165
tp166
a(S'16:12'
p167
S'16:52'
p168
tp169
a(S'17:43'
p170
S'18:22'
p171
tp172
asg1
(g2
g3
Ntp173
Rp174
(dp175
g7
I16
sb(lp176
(S'08:53'
p177
S'09:33'
p178
tp179
a(S'11:26'
p180
S'12:05'
p181
tp182
a(S'16:12'
p183
S'16:51'
p184
tp185
a(S'18:45'
p186
S'19:29'
p187
tp188
asg1
(g2
g3
Ntp189
Rp190
(dp191
g7
I17
sb(lp192
(S'09:48'
p193
S'10:26'
p194
tp195
a(S'11:26'
p196
S'12:05'
p197
tp198
a(S'16:12'
p199
S'16:49'
p200
tp201
a(S'18:45'
p202
S'19:23'
p203
tp204
asg1
(g2
g3
Ntp205
Rp206
(dp207
g7
I18
sb(lp208
(S'11:24'
p209
S'12:05'
p210
tp211
a(S'15:30'
p212
S'16:29'
p213
tp214
a(S'18:18'
p215
S'18:56'
p216
tp217
asg1
(g2
g3
Ntp218
Rp219
(dp220
g7
I19
sb(lp221
(S'09:26'
p222
S'10:12'
p223
tp224
a(S'15:29'
p225
S'16:16'
p226
tp227
a(S'17:43'
p228
S'18:20'
p229
tp230
a(S'19:42'
p231
Ntp232
asg1
(g2
g3
Ntp233
Rp234
(dp235
g7
I20
sb(lp236
(S'09:26'
p237
S'10:17'
p238
tp239
a(S'15:28'
p240
S'16:27'
p241
tp242
a(S'17:42'
p243
S'18:19'
p244
tp245
as.