(dp0
ccopy_reg
_reconstructor
p1
(cmachine
ClosedMachine
p2
c__builtin__
object
p3
Ntp4
Rp5
(dp6
S'machine_id'
p7
I1
sb(lp8
(S'14:54'
p9
S'15:32'
p10
tp11
a(S'16:10'
p12
S'17:07'
p13
tp14
a(S'17:57'
p15
S'18:36'
p16
tp17
a(S'18:53'
p18
S'19:29'
p19
tp20
a(S'19:44'
p21
Ntp22
asg1
(g2
g3
Ntp23
Rp24
(dp25
g7
I2
sb(lp26
(S'09:27'
p27
S'09:58'
p28
tp29
a(S'16:11'
p30
S'16:51'
p31
tp32
a(S'17:24'
p33
S'18:14'
p34
tp35
a(S'18:41'
p36
S'19:18'
p37
tp38
a(S'19:26'
p39
S'19:59'
p40
tp41
asg1
(g2
g3
Ntp42
Rp43
(dp44
g7
I3
sb(lp45
(S'09:27'
p46
S'10:06'
p47
tp48
a(S'15:14'
p49
S'16:06'
p50
tp51
a(S'16:33'
p52
S'17:16'
p53
tp54
a(S'17:51'
p55
S'18:29'
p56
tp57
a(S'18:53'
p58
S'19:32'
p59
tp60
a(S'19:43'
p61
Ntp62
asg1
(g2
g3
Ntp63
Rp64
(dp65
g7
I4
sb(lp66
(S'09:27'
p67
S'10:01'
p68
tp69
a(S'15:16'
p70
S'16:07'
p71
tp72
a(S'16:33'
p73
S'17:11'
p74
tp75
a(S'17:51'
p76
S'18:29'
p77
tp78
a(S'19:01'
p79
S'19:40'
p80
tp81
asg1
(g2
g3
Ntp82
Rp83
(dp84
g7
I5
sb(lp85
(S'08:17'
p86
S'08:50'
p87
tp88
a(S'09:28'
p89
S'10:07'
p90
tp91
a(S'16:33'
p92
S'17:10'
p93
tp94
a(S'17:43'
p95
S'17:48'
p96
tp97
a(S'19:22'
p98
Ntp99
asg1
(g2
g3
Ntp100
Rp101
(dp102
g7
I6
sb(lp103
(S'16:05'
p104
S'16:42'
p105
tp106
a(S'18:21'
p107
S'18:58'
p108
tp109
a(S'19:12'
p110
S'19:51'
p111
tp112
asg1
(g2
g3
Ntp113
Rp114
(dp115
g7
I7
sb(lp116
(S'14:18'
p117
S'14:56'
p118
tp119
a(S'16:31'
p120
S'17:10'
p121
tp122
a(S'17:28'
p123
S'18:05'
p124
tp125
a(S'18:16'
p126
S'18:54'
p127
tp128
a(S'19:12'
p129
S'19:49'
p130
tp131
asg1
(g2
g3
Ntp132
Rp133
(dp134
g7
I8
sb(lp135
(S'12:26'
p136
S'13:05'
p137
tp138
a(S'14:51'
p139
S'15:37'
p140
tp141
a(S'16:31'
p142
S'17:10'
p143
tp144
a(S'17:34'
p145
S'18:21'
p146
tp147
a(S'18:39'
p148
S'19:26'
p149
tp150
asg1
(g2
g3
Ntp151
Rp152
(dp153
g7
I9
sb(lp154
(S'12:26'
p155
S'13:05'
p156
tp157
a(S'15:31'
p158
S'16:09'
p159
tp160
a(S'18:14'
p161
S'19:01'
p162
tp163
a(S'19:12'
p164
S'19:42'
p165
tp166
asg1
(g2
g3
Ntp167
Rp168
(dp169
g7
I10
sb(lp170
(S'15:31'
p171
S'15:49'
p172
tp173
asg1
(g2
g3
Ntp174
Rp175
(dp176
g7
I11
sb(lp177
(S'16:32'
p178
S'17:06'
p179
tp180
a(S'17:34'
p181
S'18:13'
p182
tp183
a(S'18:19'
p184
S'18:58'
p185
tp186
asg1
(g2
g3
Ntp187
Rp188
(dp189
g7
I12
sb(lp190
(S'16:32'
p191
S'17:02'
p192
tp193
a(S'17:34'
p194
S'18:11'
p195
tp196
a(S'18:14'
p197
S'19:01'
p198
tp199
a(S'19:14'
p200
S'19:54'
p201
tp202
asg1
(g2
g3
Ntp203
Rp204
(dp205
g7
I13
sb(lp206
(S'11:00'
p207
S'11:39'
p208
tp209
a(S'12:10'
p210
S'12:50'
p211
tp212
a(S'17:03'
p213
S'17:42'
p214
tp215
a(S'18:19'
p216
S'18:53'
p217
tp218
a(S'19:17'
p219
S'19:55'
p220
tp221
asg1
(g2
g3
Ntp222
Rp223
(dp224
g7
I14
sb(lp225
(S'11:00'
p226
S'11:39'
p227
tp228
a(S'12:10'
p229
S'12:48'
p230
tp231
a(S'16:04'
p232
S'16:41'
p233
tp234
a(S'17:40'
p235
S'18:20'
p236
tp237
asg1
(g2
g3
Ntp238
Rp239
(dp240
g7
I15
sb(lp241
(S'11:00'
p242
S'11:50'
p243
tp244
a(S'12:10'
p245
S'12:43'
p246
tp247
a(S'13:22'
p248
S'14:03'
p249
tp250
a(S'15:09'
p251
S'16:10'
p252
tp253
asg1
(g2
g3
Ntp254
Rp255
(dp256
g7
I16
sb(lp257
(S'11:00'
p258
S'11:40'
p259
tp260
a(S'16:15'
p261
S'16:55'
p262
tp263
a(S'17:34'
p264
S'17:39'
p265
tp266
a(S'18:02'
p267
S'18:07'
p268
tp269
a(S'18:39'
p270
S'19:36'
p271
tp272
asg1
(g2
g3
Ntp273
Rp274
(dp275
g7
I17
sb(lp276
(S'11:21'
p277
S'12:00'
p278
tp279
a(S'13:56'
p280
S'14:35'
p281
tp282
a(S'14:51'
p283
S'15:28'
p284
tp285
a(S'16:16'
p286
S'16:56'
p287
tp288
a(S'17:03'
p289
S'17:55'
p290
tp291
a(S'18:21'
p292
S'19:01'
p293
tp294
asg1
(g2
g3
Ntp295
Rp296
(dp297
g7
I18
sb(lp298
(S'11:21'
p299
S'11:59'
p300
tp301
a(S'13:57'
p302
S'14:28'
p303
tp304
a(S'14:50'
p305
S'15:32'
p306
tp307
a(S'16:16'
p308
S'16:46'
p309
tp310
a(S'17:03'
p311
S'18:04'
p312
tp313
a(S'19:01'
p314
S'19:39'
p315
tp316
asg1
(g2
g3
Ntp317
Rp318
(dp319
g7
I19
sb(lp320
(S'14:49'
p321
S'15:27'
p322
tp323
a(S'16:34'
p324
S'17:10'
p325
tp326
a(S'17:57'
p327
S'18:36'
p328
tp329
a(S'19:01'
p330
S'19:50'
p331
tp332
asg1
(g2
g3
Ntp333
Rp334
(dp335
g7
I20
sb(lp336
(S'14:42'
p337
S'15:41'
p338
tp339
a(S'16:30'
p340
S'17:07'
p341
tp342
a(S'18:59'
p343
S'19:38'
p344
tp345
as.