(dp0
ccopy_reg
_reconstructor
p1
(cmachine
ClosedMachine
p2
c__builtin__
object
p3
Ntp4
Rp5
(dp6
S'machine_id'
p7
I1
sb(lp8
(S'07:03'
p9
S'07:42'
p10
tp11
a(S'10:46'
p12
S'11:25'
p13
tp14
a(S'11:50'
p15
S'12:29'
p16
tp17
a(S'13:18'
p18
S'14:04'
p19
tp20
a(S'15:10'
p21
S'15:47'
p22
tp23
a(S'16:22'
p24
S'16:45'
p25
tp26
a(S'17:55'
p27
S'18:32'
p28
tp29
a(S'19:52'
p30
Ntp31
asg1
(g2
g3
Ntp32
Rp33
(dp34
g7
I2
sb(lp35
(S'07:03'
p36
S'07:41'
p37
tp38
a(S'10:46'
p39
S'11:25'
p40
tp41
a(S'12:18'
p42
S'13:08'
p43
tp44
a(S'14:04'
p45
S'14:52'
p46
tp47
a(S'15:10'
p48
S'15:49'
p49
tp50
a(S'16:51'
p51
S'17:29'
p52
tp53
a(S'17:55'
p54
S'18:33'
p55
tp56
a(S'19:52'
p57
Ntp58
asg1
(g2
g3
Ntp59
Rp60
(dp61
g7
I3
sb(lp62
(S'07:39'
p63
S'08:27'
p64
tp65
a(S'14:27'
p66
S'15:04'
p67
tp68
asg1
(g2
g3
Ntp69
Rp70
(dp71
g7
I4
sb(lp72
(S'07:38'
p73
S'08:16'
p74
tp75
a(S'11:50'
p76
S'12:29'
p77
tp78
a(S'13:19'
p79
S'14:17'
p80
tp81
a(S'15:04'
p82
S'15:40'
p83
tp84
a(S'15:54'
p85
S'16:33'
p86
tp87
a(S'17:01'
p88
S'17:38'
p89
tp90
a(S'17:55'
p91
S'18:34'
p92
tp93
a(S'19:26'
p94
Ntp95
asg1
(g2
g3
Ntp96
Rp97
(dp98
g7
I5
sb(lp99
(S'07:15'
p100
S'08:00'
p101
tp102
a(S'09:34'
p103
S'10:11'
p104
tp105
a(S'11:04'
p106
S'11:41'
p107
tp108
a(S'11:47'
p109
S'12:25'
p110
tp111
a(S'15:02'
p112
S'15:36'
p113
tp114
a(S'16:07'
p115
S'16:32'
p116
tp117
a(S'16:49'
p118
S'17:41'
p119
tp120
a(S'17:55'
p121
S'18:35'
p122
tp123
a(S'19:26'
p124
Ntp125
asg1
(g2
g3
Ntp126
Rp127
(dp128
g7
I6
sb(lp129
(S'07:15'
p130
S'07:58'
p131
tp132
a(S'11:04'
p133
S'11:42'
p134
tp135
a(S'11:48'
p136
S'12:25'
p137
tp138
a(S'17:25'
p139
S'18:04'
p140
tp141
asg1
(g2
g3
Ntp142
Rp143
(dp144
g7
I7
sb(lp145
(S'07:15'
p146
S'07:55'
p147
tp148
a(S'09:58'
p149
S'10:35'
p150
tp151
a(S'11:44'
p152
S'12:15'
p153
tp154
a(S'17:28'
p155
S'18:17'
p156
tp157
asg1
(g2
g3
Ntp158
Rp159
(dp160
g7
I8
sb(lp161
(S'10:46'
p162
S'11:23'
p163
tp164
a(S'12:05'
p165
S'12:45'
p166
tp167
a(S'12:50'
p168
S'13:29'
p169
tp170
a(S'14:50'
p171
S'15:20'
p172
tp173
a(S'16:54'
p174
S'17:32'
p175
tp176
a(S'18:06'
p177
S'18:43'
p178
tp179
asg1
(g2
g3
Ntp180
Rp181
(dp182
g7
I9
sb(lp183
(S'07:18'
p184
S'07:55'
p185
tp186
a(S'10:46'
p187
S'11:23'
p188
tp189
a(S'12:05'
p190
S'12:53'
p191
tp192
a(S'13:00'
p193
S'13:36'
p194
tp195
a(S'14:50'
p196
S'15:29'
p197
tp198
a(S'16:28'
p199
S'17:13'
p200
tp201
a(S'18:06'
p202
S'18:45'
p203
tp204
asg1
(g2
g3
Ntp205
Rp206
(dp207
g7
I10
sb(lp208
(S'07:17'
p209
S'07:55'
p210
tp211
a(S'10:46'
p212
S'11:23'
p213
tp214
a(S'12:41'
p215
S'13:11'
p216
tp217
a(S'14:50'
p218
S'15:29'
p219
tp220
a(S'16:28'
p221
S'17:23'
p222
tp223
a(S'18:06'
p224
S'18:44'
p225
tp226
asg1
(g2
g3
Ntp227
Rp228
(dp229
g7
I11
sb(lp230
(S'10:42'
p231
S'11:19'
p232
tp233
a(S'11:36'
p234
S'12:21'
p235
tp236
a(S'15:49'
p237
S'16:29'
p238
tp239
a(S'17:34'
p240
S'18:15'
p241
tp242
a(S'18:16'
p243
S'18:55'
p244
tp245
asg1
(g2
g3
Ntp246
Rp247
(dp248
g7
I12
sb(lp249
(S'10:41'
p250
S'11:21'
p251
tp252
a(S'11:36'
p253
S'12:15'
p254
tp255
a(S'14:07'
p256
S'14:43'
p257
tp258
a(S'15:49'
p259
S'16:19'
p260
tp261
a(S'17:24'
p262
S'18:18'
p263
tp264
a(S'18:24'
p265
S'19:22'
p266
tp267
asg1
(g2
g3
Ntp268
Rp269
(dp270
g7
I13
sb(lp271
(S'10:42'
p272
S'11:29'
p273
tp274
a(S'11:46'
p275
S'12:38'
p276
tp277
a(S'17:36'
p278
S'18:15'
p279
tp280
asg1
(g2
g3
Ntp281
Rp282
(dp283
g7
I14
sb(lp284
(S'08:08'
p285
S'08:47'
p286
tp287
a(S'10:42'
p288
S'11:20'
p289
tp290
a(S'11:26'
p291
S'12:03'
p292
tp293
a(S'12:34'
p294
S'13:33'
p295
tp296
a(S'14:07'
p297
S'14:46'
p298
tp299
a(S'17:22'
p300
S'18:09'
p301
tp302
a(S'18:14'
p303
S'18:52'
p304
tp305
asg1
(cmachine
BrokenDownMachine
p306
g3
Ntp307
Rp308
(dp309
g7
I15
sb(lp310
S'Ute av drift'
p311
asg1
(g2
g3
Ntp312
Rp313
(dp314
g7
I16
sb(lp315
(S'08:08'
p316
S'08:47'
p317
tp318
a(S'10:42'
p319
S'11:13'
p320
tp321
a(S'11:31'
p322
S'12:09'
p323
tp324
a(S'12:36'
p325
S'13:16'
p326
tp327
a(S'16:11'
p328
S'16:49'
p329
tp330
a(S'17:21'
p331
S'17:58'
p332
tp333
a(S'18:14'
p334
S'18:52'
p335
tp336
asg1
(g2
g3
Ntp337
Rp338
(dp339
g7
I17
sb(lp340
(S'07:53'
p341
S'08:39'
p342
tp343
a(S'10:42'
p344
S'11:22'
p345
tp346
a(S'11:31'
p347
S'12:09'
p348
tp349
a(S'12:38'
p350
S'13:11'
p351
tp352
a(S'15:14'
p353
S'16:03'
p354
tp355
a(S'16:54'
p356
S'17:33'
p357
tp358
a(S'18:07'
p359
S'18:45'
p360
tp361
asg1
(g2
g3
Ntp362
Rp363
(dp364
g7
I18
sb(lp365
(S'07:40'
p366
S'07:45'
p367
tp368
a(S'15:14'
p369
S'15:19'
p370
tp371
a(S'17:35'
p372
S'17:40'
p373
tp374
asg1
(g2
g3
Ntp375
Rp376
(dp377
g7
I19
sb(lp378
(S'07:15'
p379
S'07:56'
p380
tp381
a(S'09:49'
p382
S'10:26'
p383
tp384
a(S'11:27'
p385
S'12:16'
p386
tp387
a(S'13:00'
p388
S'13:39'
p389
tp390
a(S'16:54'
p391
S'17:45'
p392
tp393
asg1
(g2
g3
Ntp394
Rp395
(dp396
g7
I20
sb(lp397
(S'07:50'
p398
S'08:48'
p399
tp400
a(S'09:50'
p401
S'10:27'
p402
tp403
a(S'15:11'
p404
S'15:58'
p405
tp406
a(S'17:27'
p407
S'18:14'
p408
tp409
as.