(dp0
ccopy_reg
_reconstructor
p1
(cmachine
ClosedMachine
p2
c__builtin__
object
p3
Ntp4
Rp5
(dp6
S'machine_id'
p7
I1
sb(lp8
(S'09:36'
p9
S'10:26'
p10
tp11
a(S'11:55'
p12
S'12:34'
p13
tp14
a(S'15:19'
p15
S'15:57'
p16
tp17
a(S'17:31'
p18
S'18:08'
p19
tp20
asg1
(g2
g3
Ntp21
Rp22
(dp23
g7
I2
sb(lp24
(S'09:16'
p25
S'09:55'
p26
tp27
a(S'11:40'
p28
S'12:18'
p29
tp30
a(S'13:40'
p31
S'14:17'
p32
tp33
a(S'15:20'
p34
S'16:08'
p35
tp36
a(S'17:31'
p37
S'18:10'
p38
tp39
a(S'18:19'
p40
S'19:06'
p41
tp42
asg1
(g2
g3
Ntp43
Rp44
(dp45
g7
I3
sb(lp46
(S'09:16'
p47
S'09:51'
p48
tp49
a(S'11:40'
p50
S'12:19'
p51
tp52
a(S'13:39'
p53
S'14:20'
p54
tp55
a(S'17:13'
p56
S'17:50'
p57
tp58
a(S'18:17'
p59
S'19:06'
p60
tp61
asg1
(g2
g3
Ntp62
Rp63
(dp64
g7
I4
sb(lp65
(S'09:16'
p66
S'09:54'
p67
tp68
a(S'11:40'
p69
S'12:19'
p70
tp71
a(S'13:38'
p72
S'14:30'
p73
tp74
a(S'15:05'
p75
S'15:56'
p76
tp77
a(S'17:13'
p78
S'17:52'
p79
tp80
a(S'18:17'
p81
S'18:55'
p82
tp83
asg1
(g2
g3
Ntp84
Rp85
(dp86
g7
I5
sb(lp87
(S'09:16'
p88
S'09:50'
p89
tp90
a(S'11:40'
p91
S'12:17'
p92
tp93
a(S'15:03'
p94
S'15:37'
p95
tp96
a(S'18:14'
p97
S'19:01'
p98
tp99
asg1
(g2
g3
Ntp100
Rp101
(dp102
g7
I6
sb(lp103
(S'09:16'
p104
S'09:55'
p105
tp106
a(S'12:15'
p107
S'12:52'
p108
tp109
a(S'18:10'
p110
S'18:48'
p111
tp112
asg1
(g2
g3
Ntp113
Rp114
(dp115
g7
I7
sb(lp116
(S'09:42'
p117
S'10:29'
p118
tp119
a(S'12:15'
p120
S'13:05'
p121
tp122
a(S'18:11'
p123
S'18:56'
p124
tp125
asg1
(g2
g3
Ntp126
Rp127
(dp128
g7
I8
sb(lp129
(S'07:47'
p130
S'08:27'
p131
tp132
a(S'09:55'
p133
S'10:42'
p134
tp135
a(S'12:25'
p136
S'13:21'
p137
tp138
a(S'15:28'
p139
S'16:08'
p140
tp141
a(S'17:04'
p142
S'17:43'
p143
tp144
a(S'18:49'
p145
S'19:43'
p146
tp147
asg1
(g2
g3
Ntp148
Rp149
(dp150
g7
I9
sb(lp151
(S'07:47'
p152
S'08:24'
p153
tp154
a(S'18:14'
p155
S'18:50'
p156
tp157
asg1
(g2
g3
Ntp158
Rp159
(dp160
g7
I10
sb(lp161
(S'16:08'
p162
S'16:27'
p163
tp164
asg1
(g2
g3
Ntp165
Rp166
(dp167
g7
I11
sb(lp168
(S'09:44'
p169
S'10:14'
p170
tp171
a(S'10:41'
p172
S'11:20'
p173
tp174
a(S'17:04'
p175
S'17:43'
p176
tp177
a(S'18:50'
p178
S'19:38'
p179
tp180
asg1
(g2
g3
Ntp181
Rp182
(dp183
g7
I12
sb(lp184
(S'09:44'
p185
S'10:23'
p186
tp187
a(S'10:41'
p188
S'11:18'
p189
tp190
a(S'18:14'
p191
S'18:52'
p192
tp193
asg1
(g2
g3
Ntp194
Rp195
(dp196
g7
I13
sb(lp197
(S'09:18'
p198
S'09:58'
p199
tp200
a(S'16:41'
p201
S'17:20'
p202
tp203
a(S'18:18'
p204
S'18:48'
p205
tp206
a(S'19:21'
p207
Ntp208
asg1
(g2
g3
Ntp209
Rp210
(dp211
g7
I14
sb(lp212
(S'09:18'
p213
S'09:49'
p214
tp215
a(S'16:41'
p216
S'17:20'
p217
tp218
a(S'18:17'
p219
S'18:46'
p220
tp221
a(S'19:21'
p222
Ntp223
asg1
(g2
g3
Ntp224
Rp225
(dp226
g7
I15
sb(lp227
(S'09:18'
p228
S'09:57'
p229
tp230
a(S'11:40'
p231
S'12:33'
p232
tp233
a(S'16:41'
p234
S'17:22'
p235
tp236
a(S'18:16'
p237
S'18:47'
p238
tp239
asg1
(g2
g3
Ntp240
Rp241
(dp242
g7
I16
sb(lp243
(S'09:19'
p244
S'09:58'
p245
tp246
a(S'11:40'
p247
S'12:20'
p248
tp249
a(S'14:30'
p250
S'15:21'
p251
tp252
a(S'17:04'
p253
S'17:43'
p254
tp255
a(S'18:48'
p256
S'19:34'
p257
tp258
asg1
(g2
g3
Ntp259
Rp260
(dp261
g7
I17
sb(lp262
(S'09:19'
p263
S'09:56'
p264
tp265
a(S'11:40'
p266
S'12:26'
p267
tp268
a(S'15:28'
p269
S'16:07'
p270
tp271
a(S'17:04'
p272
S'17:43'
p273
tp274
a(S'18:49'
p275
S'19:35'
p276
tp277
asg1
(g2
g3
Ntp278
Rp279
(dp280
g7
I18
sb(lp281
(S'07:47'
p282
S'08:25'
p283
tp284
a(S'09:42'
p285
S'10:21'
p286
tp287
a(S'11:40'
p288
S'12:18'
p289
tp290
a(S'14:30'
p291
S'15:09'
p292
tp293
a(S'15:28'
p294
S'16:05'
p295
tp296
a(S'17:04'
p297
S'17:44'
p298
tp299
a(S'18:49'
p300
S'19:35'
p301
tp302
asg1
(g2
g3
Ntp303
Rp304
(dp305
g7
I19
sb(lp306
(S'09:42'
p307
S'10:22'
p308
tp309
a(S'12:15'
p310
S'12:49'
p311
tp312
a(S'19:31'
p313
Ntp314
asg1
(g2
g3
Ntp315
Rp316
(dp317
g7
I20
sb(lp318
(S'07:37'
p319
S'08:10'
p320
tp321
a(S'09:14'
p322
S'09:54'
p323
tp324
a(S'12:14'
p325
S'12:48'
p326
tp327
a(S'18:13'
p328
S'18:46'
p329
tp330
a(S'19:30'
p331
Ntp332
as.