(dp0
ccopy_reg
_reconstructor
p1
(cmachine
ClosedMachine
p2
c__builtin__
object
p3
Ntp4
Rp5
(dp6
S'machine_id'
p7
I1
sb(lp8
(S'13:40'
p9
S'14:19'
p10
tp11
a(S'16:25'
p12
S'17:02'
p13
tp14
a(S'18:16'
p15
S'19:03'
p16
tp17
asg1
(g2
g3
Ntp18
Rp19
(dp20
g7
I2
sb(lp21
(S'11:57'
p22
S'12:37'
p23
tp24
a(S'13:40'
p25
S'14:19'
p26
tp27
a(S'16:25'
p28
S'17:03'
p29
tp30
asg1
(g2
g3
Ntp31
Rp32
(dp33
g7
I3
sb(lp34
(S'07:48'
p35
S'07:53'
p36
tp37
a(S'09:22'
p38
S'10:01'
p39
tp40
a(S'13:41'
p41
S'14:20'
p42
tp43
a(S'16:25'
p44
S'17:02'
p45
tp46
a(S'19:07'
p47
S'19:46'
p48
tp49
asg1
(g2
g3
Ntp50
Rp51
(dp52
g7
I4
sb(lp53
(S'09:10'
p54
S'09:50'
p55
tp56
a(S'16:23'
p57
S'17:12'
p58
tp59
asg1
(g2
g3
Ntp60
Rp61
(dp62
g7
I5
sb(lp63
(S'08:37'
p64
S'09:27'
p65
tp66
a(S'11:42'
p67
S'12:21'
p68
tp69
a(S'17:08'
p70
S'17:46'
p71
tp72
a(S'19:23'
p73
Ntp74
asg1
(g2
g3
Ntp75
Rp76
(dp77
g7
I6
sb(lp78
(S'17:15'
p79
S'17:54'
p80
tp81
asg1
(g2
g3
Ntp82
Rp83
(dp84
g7
I7
sb(lp85
(S'14:41'
p86
S'14:58'
p87
tp88
a(S'15:19'
p89
S'16:00'
p90
tp91
a(S'17:44'
p92
S'18:23'
p93
tp94
asg1
(g2
g3
Ntp95
Rp96
(dp97
g7
I8
sb(lp98
(S'08:17'
p99
S'08:56'
p100
tp101
a(S'13:48'
p102
S'14:19'
p103
tp104
a(S'15:24'
p105
S'16:22'
p106
tp107
a(S'17:36'
p108
S'18:15'
p109
tp110
a(S'19:05'
p111
S'19:56'
p112
tp113
asg1
(g2
g3
Ntp114
Rp115
(dp116
g7
I9
sb(lp117
(S'08:17'
p118
S'08:56'
p119
tp120
a(S'12:35'
p121
S'13:21'
p122
tp123
a(S'13:48'
p124
S'14:27'
p125
tp126
a(S'17:36'
p127
S'18:14'
p128
tp129
a(S'18:38'
p130
S'19:16'
p131
tp132
asg1
(g2
g3
Ntp133
Rp134
(dp135
g7
I10
sb(lp136
(S'08:17'
p137
S'09:03'
p138
tp139
a(S'12:35'
p140
S'13:12'
p141
tp142
a(S'13:48'
p143
S'14:28'
p144
tp145
a(S'17:46'
p146
S'18:25'
p147
tp148
a(S'19:05'
p149
S'19:44'
p150
tp151
asg1
(g2
g3
Ntp152
Rp153
(dp154
g7
I11
sb(lp155
(S'12:10'
p156
S'12:48'
p157
tp158
a(S'13:57'
p159
S'14:27'
p160
tp161
a(S'18:36'
p162
S'19:15'
p163
tp164
asg1
(g2
g3
Ntp165
Rp166
(dp167
g7
I12
sb(lp168
(S'12:08'
p169
S'12:48'
p170
tp171
a(S'18:36'
p172
S'19:16'
p173
tp174
asg1
(g2
g3
Ntp175
Rp176
(dp177
g7
I13
sb(lp178
(S'12:08'
p179
S'12:48'
p180
tp181
a(S'17:16'
p182
S'17:46'
p183
tp184
a(S'18:41'
p185
S'19:32'
p186
tp187
asg1
(g2
g3
Ntp188
Rp189
(dp190
g7
I14
sb(lp191
(S'09:08'
p192
S'09:47'
p193
tp194
a(S'12:08'
p195
S'12:47'
p196
tp197
a(S'12:58'
p198
S'13:35'
p199
tp200
a(S'13:57'
p201
S'14:30'
p202
tp203
a(S'17:16'
p204
S'17:50'
p205
tp206
a(S'18:42'
p207
S'19:21'
p208
tp209
a(S'19:50'
p210
Ntp211
asg1
(cmachine
BrokenDownMachine
p212
g3
Ntp213
Rp214
(dp215
g7
I15
sb(lp216
S'Ute av drift'
p217
asg1
(g2
g3
Ntp218
Rp219
(dp220
g7
I16
sb(lp221
(S'09:06'
p222
S'09:50'
p223
tp224
a(S'11:47'
p225
S'12:36'
p226
tp227
a(S'13:57'
p228
S'14:35'
p229
tp230
a(S'17:16'
p231
S'17:53'
p232
tp233
a(S'18:37'
p234
S'19:14'
p235
tp236
a(S'19:50'
p237
Ntp238
asg1
(g2
g3
Ntp239
Rp240
(dp241
g7
I17
sb(lp242
(S'11:47'
p243
S'12:36'
p244
tp245
a(S'13:04'
p246
S'13:44'
p247
tp248
a(S'13:58'
p249
S'14:28'
p250
tp251
a(S'17:46'
p252
S'18:25'
p253
tp254
a(S'18:35'
p255
S'19:20'
p256
tp257
a(S'19:51'
p258
Ntp259
asg1
(g2
g3
Ntp260
Rp261
(dp262
g7
I18
sb(lp263
(S'11:47'
p264
S'11:52'
p265
tp266
a(S'14:42'
p267
S'14:47'
p268
tp269
a(S'15:20'
p270
S'15:25'
p271
tp272
a(S'17:19'
p273
S'17:25'
p274
tp275
asg1
(g2
g3
Ntp276
Rp277
(dp278
g7
I19
sb(lp279
(S'14:42'
p280
S'15:38'
p281
tp282
a(S'17:18'
p283
S'17:57'
p284
tp285
a(S'19:01'
p286
S'19:40'
p287
tp288
asg1
(g2
g3
Ntp289
Rp290
(dp291
g7
I20
sb(lp292
(S'14:39'
p293
S'15:34'
p294
tp295
a(S'17:45'
p296
S'18:22'
p297
tp298
a(S'19:45'
p299
Ntp300
as.