(dp0
ccopy_reg
_reconstructor
p1
(cmachine
ClosedMachine
p2
c__builtin__
object
p3
Ntp4
Rp5
(dp6
S'machine_id'
p7
I1
sb(lp8
(S'11:12'
p9
S'11:52'
p10
tp11
asg1
(g2
g3
Ntp12
Rp13
(dp14
g7
I2
sb(lp15
(S'09:44'
p16
S'10:21'
p17
tp18
a(S'11:54'
p19
S'12:32'
p20
tp21
a(S'15:39'
p22
S'16:25'
p23
tp24
a(S'17:04'
p25
S'17:43'
p26
tp27
a(S'18:40'
p28
S'19:17'
p29
tp30
asg1
(g2
g3
Ntp31
Rp32
(dp33
g7
I3
sb(lp34
(S'09:44'
p35
S'10:22'
p36
tp37
a(S'14:10'
p38
S'14:48'
p39
tp40
a(S'15:25'
p41
S'15:58'
p42
tp43
a(S'16:27'
p44
S'16:57'
p45
tp46
a(S'18:39'
p47
S'19:18'
p48
tp49
a(S'19:58'
p50
Ntp51
asg1
(g2
g3
Ntp52
Rp53
(dp54
g7
I4
sb(lp55
(S'09:44'
p56
S'10:31'
p57
tp58
a(S'14:10'
p59
S'14:49'
p60
tp61
a(S'16:26'
p62
S'17:16'
p63
tp64
a(S'19:39'
p65
Ntp66
asg1
(g2
g3
Ntp67
Rp68
(dp69
g7
I5
sb(lp70
(S'08:44'
p71
S'09:31'
p72
tp73
a(S'09:41'
p74
S'10:19'
p75
tp76
a(S'11:12'
p77
S'11:50'
p78
tp79
asg1
(g2
g3
Ntp80
Rp81
(dp82
g7
I6
sb(lp83
(S'10:43'
p84
S'11:29'
p85
tp86
a(S'12:35'
p87
S'13:16'
p88
tp89
a(S'14:00'
p90
S'14:39'
p91
tp92
a(S'15:37'
p93
S'16:15'
p94
tp95
a(S'17:48'
p96
S'18:33'
p97
tp98
asg1
(g2
g3
Ntp99
Rp100
(dp101
g7
I7
sb(lp102
(S'10:43'
p103
S'11:28'
p104
tp105
a(S'12:36'
p106
S'13:14'
p107
tp108
a(S'14:00'
p109
S'14:40'
p110
tp111
a(S'15:37'
p112
S'16:15'
p113
tp114
a(S'17:46'
p115
S'18:24'
p116
tp117
asg1
(g2
g3
Ntp118
Rp119
(dp120
g7
I8
sb(lp121
(S'10:27'
p122
S'11:21'
p123
tp124
a(S'12:30'
p125
S'13:18'
p126
tp127
a(S'14:20'
p128
S'15:07'
p129
tp130
asg1
(g2
g3
Ntp131
Rp132
(dp133
g7
I9
sb(lp134
(S'10:44'
p135
S'11:23'
p136
tp137
a(S'12:30'
p138
S'13:30'
p139
tp140
a(S'14:20'
p141
S'15:08'
p142
tp143
asg1
(g2
g3
Ntp144
Rp145
(dp146
g7
I10
sb(lp147
sg1
(g2
g3
Ntp148
Rp149
(dp150
g7
I11
sb(lp151
(S'08:33'
p152
S'09:12'
p153
tp154
a(S'14:42'
p155
S'15:20'
p156
tp157
a(S'16:22'
p158
S'16:59'
p159
tp160
a(S'17:46'
p161
S'18:23'
p162
tp163
asg1
(g2
g3
Ntp164
Rp165
(dp166
g7
I12
sb(lp167
(S'08:34'
p168
S'09:13'
p169
tp170
a(S'14:42'
p171
S'15:21'
p172
tp173
a(S'16:22'
p174
S'17:01'
p175
tp176
a(S'17:47'
p177
S'18:25'
p178
tp179
asg1
(g2
g3
Ntp180
Rp181
(dp182
g7
I13
sb(lp183
(S'08:34'
p184
S'09:04'
p185
tp186
a(S'12:54'
p187
S'13:31'
p188
tp189
a(S'14:11'
p190
S'14:58'
p191
tp192
a(S'16:58'
p193
S'17:35'
p194
tp195
asg1
(g2
g3
Ntp196
Rp197
(dp198
g7
I14
sb(lp199
(S'10:07'
p200
S'10:47'
p201
tp202
a(S'12:54'
p203
S'13:30'
p204
tp205
a(S'14:11'
p206
S'14:57'
p207
tp208
a(S'16:22'
p209
S'17:08'
p210
tp211
a(S'17:47'
p212
S'18:26'
p213
tp214
asg1
(g2
g3
Ntp215
Rp216
(dp217
g7
I15
sb(lp218
(S'10:07'
p219
S'10:47'
p220
tp221
a(S'14:11'
p222
S'14:58'
p223
tp224
a(S'15:45'
p225
S'16:39'
p226
tp227
a(S'16:58'
p228
S'17:38'
p229
tp230
a(S'17:45'
p231
S'18:25'
p232
tp233
asg1
(g2
g3
Ntp234
Rp235
(dp236
g7
I16
sb(lp237
(S'10:07'
p238
S'10:56'
p239
tp240
a(S'12:31'
p241
S'13:41'
p242
tp243
a(S'15:45'
p244
S'16:28'
p245
tp246
a(S'16:58'
p247
S'17:37'
p248
tp249
a(S'17:45'
p250
S'18:24'
p251
tp252
a(S'18:47'
p253
S'19:34'
p254
tp255
asg1
(g2
g3
Ntp256
Rp257
(dp258
g7
I17
sb(lp259
(S'09:41'
p260
S'10:20'
p261
tp262
a(S'11:43'
p263
S'12:13'
p264
tp265
a(S'15:45'
p266
S'16:37'
p267
tp268
a(S'17:03'
p269
S'17:42'
p270
tp271
a(S'18:47'
p272
S'19:34'
p273
tp274
asg1
(g2
g3
Ntp275
Rp276
(dp277
g7
I18
sb(lp278
(S'11:43'
p279
S'12:22'
p280
tp281
a(S'15:45'
p282
S'16:36'
p283
tp284
a(S'17:04'
p285
S'17:42'
p286
tp287
a(S'18:03'
p288
S'18:40'
p289
tp290
asg1
(g2
g3
Ntp291
Rp292
(dp293
g7
I19
sb(lp294
(S'10:37'
p295
S'11:46'
p296
tp297
a(S'17:04'
p298
S'17:52'
p299
tp300
a(S'18:03'
p301
S'18:41'
p302
tp303
asg1
(g2
g3
Ntp304
Rp305
(dp306
g7
I20
sb(lp307
(S'10:42'
p308
S'11:28'
p309
tp310
a(S'16:15'
p311
S'17:08'
p312
tp313
a(S'17:48'
p314
S'18:24'
p315
tp316
as.