(dp0
ccopy_reg
_reconstructor
p1
(cmachine
ClosedMachine
p2
c__builtin__
object
p3
Ntp4
Rp5
(dp6
S'machine_id'
p7
I1
sb(lp8
(S'10:36'
p9
S'11:06'
p10
tp11
a(S'15:45'
p12
S'16:24'
p13
tp14
a(S'18:07'
p15
S'18:56'
p16
tp17
asg1
(g2
g3
Ntp18
Rp19
(dp20
g7
I2
sb(lp21
(S'07:08'
p22
S'07:57'
p23
tp24
a(S'10:37'
p25
S'11:16'
p26
tp27
a(S'12:06'
p28
S'12:45'
p29
tp30
a(S'13:20'
p31
S'14:07'
p32
tp33
a(S'15:37'
p34
S'16:14'
p35
tp36
a(S'16:58'
p37
S'17:37'
p38
tp39
a(S'18:25'
p40
S'19:03'
p41
tp42
asg1
(g2
g3
Ntp43
Rp44
(dp45
g7
I3
sb(lp46
(S'07:09'
p47
S'07:46'
p48
tp49
a(S'10:37'
p50
S'11:16'
p51
tp52
a(S'12:06'
p53
S'12:45'
p54
tp55
a(S'13:20'
p56
S'14:08'
p57
tp58
a(S'15:34'
p59
S'16:04'
p60
tp61
a(S'16:42'
p62
S'17:19'
p63
tp64
a(S'18:03'
p65
S'18:41'
p66
tp67
a(S'19:36'
p68
Ntp69
asg1
(g2
g3
Ntp70
Rp71
(dp72
g7
I4
sb(lp73
(S'07:09'
p74
S'07:47'
p75
tp76
a(S'10:39'
p77
S'11:18'
p78
tp79
a(S'12:05'
p80
S'12:44'
p81
tp82
a(S'13:20'
p83
S'14:08'
p84
tp85
a(S'15:34'
p86
S'16:13'
p87
tp88
a(S'16:42'
p89
S'17:21'
p90
tp91
a(S'18:13'
p92
S'18:50'
p93
tp94
a(S'19:36'
p95
Ntp96
asg1
(g2
g3
Ntp97
Rp98
(dp99
g7
I5
sb(lp100
(S'07:08'
p101
S'07:47'
p102
tp103
a(S'10:39'
p104
S'11:18'
p105
tp106
a(S'12:05'
p107
S'12:43'
p108
tp109
a(S'14:52'
p110
S'15:31'
p111
tp112
a(S'16:35'
p113
S'17:13'
p114
tp115
a(S'18:13'
p116
S'18:51'
p117
tp118
a(S'19:36'
p119
Ntp120
asg1
(g2
g3
Ntp121
Rp122
(dp123
g7
I6
sb(lp124
(S'08:48'
p125
S'09:24'
p126
tp127
a(S'09:52'
p128
S'10:31'
p129
tp130
a(S'14:33'
p131
S'15:11'
p132
tp133
a(S'19:36'
p134
Ntp135
asg1
(g2
g3
Ntp136
Rp137
(dp138
g7
I7
sb(lp139
(S'09:52'
p140
S'10:31'
p141
tp142
a(S'13:44'
p143
S'14:31'
p144
tp145
a(S'14:51'
p146
S'15:31'
p147
tp148
a(S'15:44'
p149
S'16:23'
p150
tp151
a(S'17:28'
p152
S'18:26'
p153
tp154
a(S'18:41'
p155
S'19:15'
p156
tp157
asg1
(g2
g3
Ntp158
Rp159
(dp160
g7
I8
sb(lp161
(S'09:10'
p162
S'09:40'
p163
tp164
a(S'10:05'
p165
S'10:56'
p166
tp167
a(S'13:09'
p168
S'13:54'
p169
tp170
a(S'14:52'
p171
S'15:29'
p172
tp173
a(S'15:45'
p174
S'16:24'
p175
tp176
a(S'18:22'
p177
S'19:08'
p178
tp179
asg1
(g2
g3
Ntp180
Rp181
(dp182
g7
I9
sb(lp183
(S'09:10'
p184
S'09:47'
p185
tp186
a(S'10:05'
p187
S'10:42'
p188
tp189
a(S'13:09'
p190
S'13:54'
p191
tp192
a(S'14:52'
p193
S'15:39'
p194
tp195
a(S'15:46'
p196
S'16:24'
p197
tp198
a(S'18:04'
p199
S'19:15'
p200
tp201
asg1
(g2
g3
Ntp202
Rp203
(dp204
g7
I10
sb(lp205
(S'09:10'
p206
S'09:49'
p207
tp208
a(S'10:16'
p209
S'10:54'
p210
tp211
a(S'13:09'
p212
S'13:46'
p213
tp214
a(S'14:52'
p215
S'15:40'
p216
tp217
a(S'16:26'
p218
S'17:05'
p219
tp220
a(S'17:44'
p221
S'18:23'
p222
tp223
a(S'18:43'
p224
S'19:20'
p225
tp226
asg1
(g2
g3
Ntp227
Rp228
(dp229
g7
I11
sb(lp230
(S'10:16'
p231
S'10:55'
p232
tp233
a(S'16:54'
p234
S'17:27'
p235
tp236
a(S'17:44'
p237
S'18:22'
p238
tp239
a(S'19:00'
p240
S'19:39'
p241
tp242
asg1
(g2
g3
Ntp243
Rp244
(dp245
g7
I12
sb(lp246
(S'09:39'
p247
S'10:18'
p248
tp249
a(S'16:54'
p250
S'17:33'
p251
tp252
a(S'17:44'
p253
S'18:18'
p254
tp255
a(S'18:24'
p256
S'19:03'
p257
tp258
asg1
(g2
g3
Ntp259
Rp260
(dp261
g7
I13
sb(lp262
(S'09:22'
p263
S'10:01'
p264
tp265
a(S'16:58'
p266
S'17:44'
p267
tp268
a(S'18:21'
p269
S'18:55'
p270
tp271
asg1
(g2
g3
Ntp272
Rp273
(dp274
g7
I14
sb(lp275
(S'09:27'
p276
S'10:06'
p277
tp278
a(S'16:58'
p279
S'17:35'
p280
tp281
a(S'19:03'
p282
S'19:42'
p283
tp284
asg1
(cmachine
BrokenDownMachine
p285
g3
Ntp286
Rp287
(dp288
g7
I15
sb(lp289
S'Ute av drift'
p290
asg1
(g2
g3
Ntp291
Rp292
(dp293
g7
I16
sb(lp294
(S'09:29'
p295
S'10:09'
p296
tp297
a(S'16:07'
p298
S'16:46'
p299
tp300
a(S'18:16'
p301
S'18:49'
p302
tp303
asg1
(g2
g3
Ntp304
Rp305
(dp306
g7
I17
sb(lp307
(S'09:18'
p308
S'10:18'
p309
tp310
a(S'11:06'
p311
S'11:57'
p312
tp313
a(S'13:09'
p314
S'13:46'
p315
tp316
a(S'16:08'
p317
S'16:57'
p318
tp319
a(S'18:15'
p320
S'18:49'
p321
tp322
asg1
(g2
g3
Ntp323
Rp324
(dp325
g7
I18
sb(lp326
(S'10:17'
p327
S'10:22'
p328
tp329
aS'Ute av drift'
p330
asg1
(g2
g3
Ntp331
Rp332
(dp333
g7
I19
sb(lp334
(S'09:21'
p335
S'10:06'
p336
tp337
a(S'11:08'
p338
S'11:50'
p339
tp340
aS'Ute av drift'
p341
asg1
(g2
g3
Ntp342
Rp343
(dp344
g7
I20
sb(lp345
(S'09:51'
p346
S'10:28'
p347
tp348
a(S'17:42'
p349
S'18:32'
p350
tp351
as.