(dp0
ccopy_reg
_reconstructor
p1
(cmachine
ClosedMachine
p2
c__builtin__
object
p3
Ntp4
Rp5
(dp6
S'machine_id'
p7
I1
sb(lp8
(S'08:42'
p9
S'09:15'
p10
tp11
a(S'11:45'
p12
S'12:22'
p13
tp14
a(S'12:34'
p15
S'13:13'
p16
tp17
a(S'16:33'
p18
S'17:03'
p19
tp20
a(S'18:26'
p21
S'19:16'
p22
tp23
asg1
(g2
g3
Ntp24
Rp25
(dp26
g7
I2
sb(lp27
(S'08:42'
p28
S'09:21'
p29
tp30
a(S'11:45'
p31
S'12:24'
p32
tp33
a(S'12:34'
p34
S'13:13'
p35
tp36
a(S'14:00'
p37
S'14:05'
p38
tp39
a(S'14:58'
p40
S'15:37'
p41
tp42
a(S'16:09'
p43
S'16:48'
p44
tp45
a(S'18:54'
p46
S'19:31'
p47
tp48
asg1
(g2
g3
Ntp49
Rp50
(dp51
g7
I3
sb(lp52
(S'08:49'
p53
S'09:29'
p54
tp55
a(S'12:33'
p56
S'13:23'
p57
tp58
a(S'13:30'
p59
S'14:20'
p60
tp61
a(S'16:25'
p62
S'17:04'
p63
tp64
a(S'18:14'
p65
S'18:52'
p66
tp67
asg1
(g2
g3
Ntp68
Rp69
(dp70
g7
I4
sb(lp71
(S'08:49'
p72
S'09:19'
p73
tp74
a(S'12:33'
p75
S'13:12'
p76
tp77
a(S'13:22'
p78
S'14:13'
p79
tp80
a(S'15:13'
p81
S'16:01'
p82
tp83
a(S'16:15'
p84
S'16:56'
p85
tp86
a(S'18:55'
p87
S'19:34'
p88
tp89
asg1
(g2
g3
Ntp90
Rp91
(dp92
g7
I5
sb(lp93
(S'08:49'
p94
S'09:25'
p95
tp96
a(S'12:33'
p97
S'13:04'
p98
tp99
a(S'13:22'
p100
S'14:13'
p101
tp102
a(S'16:44'
p103
S'17:23'
p104
tp105
a(S'18:55'
p106
S'19:34'
p107
tp108
asg1
(g2
g3
Ntp109
Rp110
(dp111
g7
I6
sb(lp112
(S'10:11'
p113
S'10:48'
p114
tp115
a(S'11:49'
p116
S'12:22'
p117
tp118
a(S'12:36'
p119
S'13:06'
p120
tp121
a(S'15:46'
p122
S'16:24'
p123
tp124
a(S'18:56'
p125
S'19:35'
p126
tp127
asg1
(g2
g3
Ntp128
Rp129
(dp130
g7
I7
sb(lp131
(S'10:12'
p132
S'10:46'
p133
tp134
a(S'11:29'
p135
S'12:07'
p136
tp137
a(S'12:36'
p138
S'13:06'
p139
tp140
a(S'15:46'
p141
S'16:23'
p142
tp143
asg1
(g2
g3
Ntp144
Rp145
(dp146
g7
I8
sb(lp147
(S'11:50'
p148
S'12:21'
p149
tp150
a(S'13:05'
p151
S'13:44'
p152
tp153
a(S'14:16'
p154
S'14:55'
p155
tp156
a(S'16:09'
p157
S'16:55'
p158
tp159
a(S'18:32'
p160
S'19:11'
p161
tp162
asg1
(g2
g3
Ntp163
Rp164
(dp165
g7
I9
sb(lp166
(S'06:59'
p167
S'07:38'
p168
tp169
a(S'11:51'
p170
S'12:28'
p171
tp172
a(S'13:06'
p173
S'13:45'
p174
tp175
a(S'14:53'
p176
S'15:26'
p177
tp178
a(S'16:31'
p179
S'17:19'
p180
tp181
a(S'18:32'
p182
S'19:11'
p183
tp184
asg1
(g2
g3
Ntp185
Rp186
(dp187
g7
I10
sb(lp188
(S'06:59'
p189
S'07:38'
p190
tp191
a(S'10:03'
p192
S'10:42'
p193
tp194
a(S'16:32'
p195
S'17:10'
p196
tp197
a(S'18:32'
p198
S'19:11'
p199
tp200
asg1
(g2
g3
Ntp201
Rp202
(dp203
g7
I11
sb(lp204
(S'06:59'
p205
S'07:47'
p206
tp207
a(S'10:03'
p208
S'10:42'
p209
tp210
a(S'18:33'
p211
S'19:12'
p212
tp213
asg1
(g2
g3
Ntp214
Rp215
(dp216
g7
I12
sb(lp217
(S'10:03'
p218
S'10:42'
p219
tp220
a(S'12:39'
p221
S'13:19'
p222
tp223
a(S'16:33'
p224
S'17:12'
p225
tp226
asg1
(g2
g3
Ntp227
Rp228
(dp229
g7
I13
sb(lp230
(S'12:39'
p231
S'13:16'
p232
tp233
a(S'16:27'
p234
S'17:06'
p235
tp236
asg1
(g2
g3
Ntp237
Rp238
(dp239
g7
I14
sb(lp240
(S'07:21'
p241
S'08:06'
p242
tp243
a(S'12:39'
p244
S'13:17'
p245
tp246
a(S'16:27'
p247
S'17:06'
p248
tp249
a(S'19:52'
p250
Ntp251
asg1
(cmachine
BrokenDownMachine
p252
g3
Ntp253
Rp254
(dp255
g7
I15
sb(lp256
S'Ute av drift'
p257
asg1
(g2
g3
Ntp258
Rp259
(dp260
g7
I16
sb(lp261
(S'08:04'
p262
S'08:54'
p263
tp264
a(S'12:39'
p265
S'13:18'
p266
tp267
a(S'16:12'
p268
S'17:07'
p269
tp270
a(S'18:33'
p271
S'19:12'
p272
tp273
a(S'19:46'
p274
Ntp275
asg1
(g2
g3
Ntp276
Rp277
(dp278
g7
I17
sb(lp279
(S'07:37'
p280
S'08:25'
p281
tp282
a(S'12:33'
p283
S'13:10'
p284
tp285
a(S'14:53'
p286
S'15:26'
p287
tp288
a(S'16:56'
p289
S'17:35'
p290
tp291
asg1
(g252
g3
Ntp292
Rp293
(dp294
g7
I18
sb(lp295
g257
asg1
(g252
g3
Ntp296
Rp297
(dp298
g7
I19
sb(lp299
g257
asg1
(g2
g3
Ntp300
Rp301
(dp302
g7
I20
sb(lp303
(S'10:11'
p304
S'10:50'
p305
tp306
a(S'12:34'
p307
S'13:04'
p308
tp309
a(S'14:49'
p310
S'15:33'
p311
tp312
a(S'16:53'
p313
S'17:33'
p314
tp315
as.