(dp0
ccopy_reg
_reconstructor
p1
(cmachine
ClosedMachine
p2
c__builtin__
object
p3
Ntp4
Rp5
(dp6
S'machine_id'
p7
I1
sb(lp8
(S'08:33'
p9
S'09:06'
p10
tp11
a(S'13:34'
p12
S'14:13'
p13
tp14
a(S'14:58'
p15
S'15:36'
p16
tp17
a(S'16:15'
p18
S'18:06'
p19
tp20
asg1
(g2
g3
Ntp21
Rp22
(dp23
g7
I2
sb(lp24
(S'08:33'
p25
S'09:42'
p26
tp27
a(S'17:42'
p28
S'18:06'
p29
tp30
asg1
(g2
g3
Ntp31
Rp32
(dp33
g7
I3
sb(lp34
(S'07:12'
p35
S'07:42'
p36
tp37
a(S'08:33'
p38
S'09:40'
p39
tp40
a(S'17:01'
p41
S'17:39'
p42
tp43
a(S'18:18'
p44
S'18:57'
p45
tp46
asg1
(g2
g3
Ntp47
Rp48
(dp49
g7
I4
sb(lp50
(S'09:08'
p51
S'09:54'
p52
tp53
a(S'10:16'
p54
S'10:46'
p55
tp56
a(S'12:44'
p57
S'13:21'
p58
tp59
a(S'14:52'
p60
S'15:31'
p61
tp62
asg1
(g2
g3
Ntp63
Rp64
(dp65
g7
I5
sb(lp66
(S'09:08'
p67
S'09:54'
p68
tp69
a(S'12:44'
p70
S'13:23'
p71
tp72
a(S'14:58'
p73
S'15:34'
p74
tp75
a(S'16:15'
p76
S'17:02'
p77
tp78
asg1
(g2
g3
Ntp79
Rp80
(dp81
g7
I6
sb(lp82
(S'09:08'
p83
S'09:54'
p84
tp85
a(S'13:25'
p86
S'14:12'
p87
tp88
a(S'15:27'
p89
S'16:04'
p90
tp91
a(S'16:33'
p92
S'17:06'
p93
tp94
asg1
(g2
g3
Ntp95
Rp96
(dp97
g7
I7
sb(lp98
(S'10:10'
p99
S'10:44'
p100
tp101
a(S'13:25'
p102
S'14:12'
p103
tp104
a(S'14:59'
p105
S'15:32'
p106
tp107
a(S'16:26'
p108
S'17:05'
p109
tp110
a(S'17:28'
p111
S'17:33'
p112
tp113
a(S'18:12'
p114
S'18:49'
p115
tp116
asg1
(g2
g3
Ntp117
Rp118
(dp119
g7
I8
sb(lp120
(S'08:17'
p121
S'09:03'
p122
tp123
a(S'09:53'
p124
S'09:58'
p125
tp126
a(S'11:00'
p127
S'11:39'
p128
tp129
a(S'11:50'
p130
S'12:20'
p131
tp132
asg1
(g2
g3
Ntp133
Rp134
(dp135
g7
I9
sb(lp136
(S'08:17'
p137
S'08:54'
p138
tp139
a(S'13:29'
p140
S'14:08'
p141
tp142
a(S'16:26'
p143
S'16:56'
p144
tp145
asg1
(g2
g3
Ntp146
Rp147
(dp148
g7
I10
sb(lp149
sg1
(g2
g3
Ntp150
Rp151
(dp152
g7
I11
sb(lp153
(S'12:54'
p154
S'13:32'
p155
tp156
a(S'16:15'
p157
S'16:53'
p158
tp159
asg1
(g2
g3
Ntp160
Rp161
(dp162
g7
I12
sb(lp163
(S'12:54'
p164
S'13:34'
p165
tp166
a(S'16:31'
p167
S'17:10'
p168
tp169
asg1
(g2
g3
Ntp170
Rp171
(dp172
g7
I13
sb(lp173
(S'11:41'
p174
S'12:20'
p175
tp176
a(S'13:34'
p177
S'14:12'
p178
tp179
a(S'16:31'
p180
S'17:10'
p181
tp182
a(S'18:30'
p183
S'19:08'
p184
tp185
asg1
(g2
g3
Ntp186
Rp187
(dp188
g7
I14
sb(lp189
(S'09:41'
p190
S'10:31'
p191
tp192
a(S'11:41'
p193
S'12:20'
p194
tp195
a(S'13:20'
p196
S'13:59'
p197
tp198
a(S'15:25'
p199
S'16:04'
p200
tp201
a(S'16:26'
p202
S'17:16'
p203
tp204
a(S'18:30'
p205
S'19:08'
p206
tp207
asg1
(g2
g3
Ntp208
Rp209
(dp210
g7
I15
sb(lp211
(S'09:41'
p212
S'10:21'
p213
tp214
a(S'11:41'
p215
S'12:22'
p216
tp217
a(S'13:20'
p218
S'14:00'
p219
tp220
a(S'15:35'
p221
S'16:07'
p222
tp223
a(S'17:19'
p224
S'17:52'
p225
tp226
asg1
(g2
g3
Ntp227
Rp228
(dp229
g7
I16
sb(lp230
(S'11:41'
p231
S'12:32'
p232
tp233
a(S'13:29'
p234
S'14:07'
p235
tp236
a(S'15:35'
p237
S'16:13'
p238
tp239
asg1
(g2
g3
Ntp240
Rp241
(dp242
g7
I17
sb(lp243
(S'09:27'
p244
S'10:58'
p245
tp246
a(S'11:50'
p247
S'12:30'
p248
tp249
asg1
(g2
g3
Ntp250
Rp251
(dp252
g7
I18
sb(lp253
(S'09:53'
p254
S'09:59'
p255
tp256
a(S'11:00'
p257
S'11:40'
p258
tp259
a(S'11:50'
p260
S'12:28'
p261
tp262
asg1
(g2
g3
Ntp263
Rp264
(dp265
g7
I19
sb(lp266
(S'09:54'
p267
S'09:59'
p268
tp269
a(S'11:00'
p270
S'11:38'
p271
tp272
a(S'13:54'
p273
S'14:34'
p274
tp275
a(S'15:27'
p276
S'16:14'
p277
tp278
a(S'17:30'
p279
S'18:08'
p280
tp281
asg1
(g2
g3
Ntp282
Rp283
(dp284
g7
I20
sb(lp285
(S'09:51'
p286
S'10:30'
p287
tp288
a(S'16:15'
p289
S'16:57'
p290
tp291
a(S'17:29'
p292
S'18:09'
p293
tp294
as.