(dp0
ccopy_reg
_reconstructor
p1
(cmachine
ClosedMachine
p2
c__builtin__
object
p3
Ntp4
Rp5
(dp6
S'machine_id'
p7
I1
sb(lp8
(S'07:04'
p9
S'08:32'
p10
tp11
a(S'08:47'
p12
S'09:51'
p13
tp14
a(S'13:40'
p15
S'14:21'
p16
tp17
a(S'14:45'
p18
S'15:16'
p19
tp20
a(S'15:34'
p21
S'16:07'
p22
tp23
a(S'17:18'
p24
S'17:55'
p25
tp26
a(S'18:44'
p27
S'19:34'
p28
tp29
asg1
(g2
g3
Ntp30
Rp31
(dp32
g7
I2
sb(lp33
(S'07:04'
p34
S'08:32'
p35
tp36
a(S'08:47'
p37
S'09:59'
p38
tp39
a(S'13:47'
p40
S'14:38'
p41
tp42
a(S'15:27'
p43
S'15:32'
p44
tp45
a(S'16:21'
p46
S'17:01'
p47
tp48
a(S'18:44'
p49
S'19:23'
p50
tp51
asg1
(g2
g3
Ntp52
Rp53
(dp54
g7
I3
sb(lp55
(S'09:04'
p56
S'09:43'
p57
tp58
a(S'11:06'
p59
S'11:45'
p60
tp61
a(S'12:29'
p62
S'13:16'
p63
tp64
a(S'13:46'
p65
S'14:26'
p66
tp67
a(S'14:48'
p68
S'15:38'
p69
tp70
a(S'16:19'
p71
S'17:27'
p72
tp73
a(S'17:49'
p74
S'18:23'
p75
tp76
asg1
(g2
g3
Ntp77
Rp78
(dp79
g7
I4
sb(lp80
(S'09:04'
p81
S'09:43'
p82
tp83
a(S'11:06'
p84
S'11:44'
p85
tp86
a(S'12:29'
p87
S'13:15'
p88
tp89
a(S'13:47'
p90
S'14:38'
p91
tp92
a(S'14:48'
p93
S'15:18'
p94
tp95
a(S'17:18'
p96
S'17:57'
p97
tp98
a(S'18:30'
p99
S'19:07'
p100
tp101
asg1
(g2
g3
Ntp102
Rp103
(dp104
g7
I5
sb(lp105
(S'09:04'
p106
S'09:43'
p107
tp108
a(S'11:06'
p109
S'11:44'
p110
tp111
a(S'12:07'
p112
S'12:58'
p113
tp114
a(S'15:18'
p115
S'15:56'
p116
tp117
a(S'17:18'
p118
S'17:55'
p119
tp120
a(S'18:19'
p121
S'18:53'
p122
tp123
a(S'19:16'
p124
S'19:53'
p125
tp126
asg1
(g2
g3
Ntp127
Rp128
(dp129
g7
I6
sb(lp130
(S'11:32'
p131
S'12:09'
p132
tp133
a(S'13:47'
p134
S'14:24'
p135
tp136
a(S'15:25'
p137
S'15:31'
p138
tp139
a(S'15:32'
p140
S'16:09'
p141
tp142
a(S'17:40'
p143
S'18:19'
p144
tp145
asg1
(g2
g3
Ntp146
Rp147
(dp148
g7
I7
sb(lp149
(S'13:45'
p150
S'13:54'
p151
tp152
a(S'15:24'
p153
S'16:06'
p154
tp155
a(S'16:17'
p156
S'17:28'
p157
tp158
a(S'19:07'
p159
S'19:46'
p160
tp161
asg1
(g2
g3
Ntp162
Rp163
(dp164
g7
I8
sb(lp165
(S'11:48'
p166
S'12:27'
p167
tp168
a(S'14:53'
p169
S'15:30'
p170
tp171
a(S'17:47'
p172
S'18:25'
p173
tp174
asg1
(g2
g3
Ntp175
Rp176
(dp177
g7
I9
sb(lp178
(S'08:35'
p179
S'09:12'
p180
tp181
a(S'11:54'
p182
S'12:42'
p183
tp184
a(S'15:26'
p185
S'16:09'
p186
tp187
a(S'17:23'
p188
S'18:00'
p189
tp190
a(S'18:15'
p191
S'19:02'
p192
tp193
asg1
(g2
g3
Ntp194
Rp195
(dp196
g7
I10
sb(lp197
(S'07:22'
p198
S'07:59'
p199
tp200
a(S'08:36'
p201
S'10:02'
p202
tp203
a(S'11:20'
p204
S'12:00'
p205
tp206
a(S'15:26'
p207
S'16:08'
p208
tp209
a(S'17:23'
p210
S'18:06'
p211
tp212
a(S'18:17'
p213
S'19:04'
p214
tp215
asg1
(g2
g3
Ntp216
Rp217
(dp218
g7
I11
sb(lp219
(S'07:22'
p220
S'08:03'
p221
tp222
a(S'08:36'
p223
S'10:05'
p224
tp225
a(S'11:21'
p226
S'12:00'
p227
tp228
a(S'12:30'
p229
S'13:29'
p230
tp231
a(S'17:47'
p232
S'18:25'
p233
tp234
asg1
(g2
g3
Ntp235
Rp236
(dp237
g7
I12
sb(lp238
(S'07:22'
p239
S'08:13'
p240
tp241
a(S'08:36'
p242
S'09:47'
p243
tp244
a(S'11:21'
p245
S'12:00'
p246
tp247
a(S'15:26'
p248
S'16:09'
p249
tp250
a(S'17:41'
p251
S'18:20'
p252
tp253
asg1
(g2
g3
Ntp254
Rp255
(dp256
g7
I13
sb(lp257
(S'08:01'
p258
S'08:31'
p259
tp260
a(S'11:21'
p261
S'11:59'
p262
tp263
a(S'15:27'
p264
S'16:09'
p265
tp266
a(S'17:24'
p267
S'18:01'
p268
tp269
a(S'18:26'
p270
S'19:17'
p271
tp272
asg1
(g2
g3
Ntp273
Rp274
(dp275
g7
I14
sb(lp276
(S'08:01'
p277
S'08:52'
p278
tp279
a(S'11:27'
p280
S'12:05'
p281
tp282
a(S'12:35'
p283
S'13:14'
p284
tp285
a(S'15:29'
p286
S'16:09'
p287
tp288
a(S'16:36'
p289
S'17:15'
p290
tp291
a(S'17:47'
p292
S'18:26'
p293
tp294
asg1
(cmachine
BrokenDownMachine
p295
g3
Ntp296
Rp297
(dp298
g7
I15
sb(lp299
S'Ute av drift'
p300
a(S'11:48'
p301
S'12:27'
p302
tp303
a(S'12:53'
p304
S'14:23'
p305
tp306
a(S'15:27'
p307
S'16:11'
p308
tp309
a(S'16:37'
p310
S'17:15'
p311
tp312
asg1
(g2
g3
Ntp313
Rp314
(dp315
g7
I16
sb(lp316
(S'08:41'
p317
S'09:19'
p318
tp319
a(S'11:27'
p320
S'12:15'
p321
tp322
a(S'12:55'
p323
S'14:06'
p324
tp325
a(S'15:27'
p326
S'16:21'
p327
tp328
a(S'16:37'
p329
S'17:16'
p330
tp331
a(S'18:28'
p332
S'19:14'
p333
tp334
asg1
(g2
g3
Ntp335
Rp336
(dp337
g7
I17
sb(lp338
(S'08:41'
p339
S'09:20'
p340
tp341
a(S'11:24'
p342
S'12:00'
p343
tp344
a(S'12:35'
p345
S'13:14'
p346
tp347
a(S'13:47'
p348
S'14:25'
p349
tp350
a(S'15:20'
p351
S'15:58'
p352
tp353
a(S'17:24'
p354
S'18:03'
p355
tp356
a(S'18:19'
p357
S'19:08'
p358
tp359
a(S'19:26'
p360
Ntp361
asg1
(g295
g3
Ntp362
Rp363
(dp364
g7
I18
sb(lp365
g300
a(S'11:48'
p366
S'12:27'
p367
tp368
a(S'15:19'
p369
S'15:59'
p370
tp371
a(S'17:23'
p372
S'18:02'
p373
tp374
a(S'19:26'
p375
Ntp376
asg1
(g295
g3
Ntp377
Rp378
(dp379
g7
I19
sb(lp380
g300
asg1
(g2
g3
Ntp381
Rp382
(dp383
g7
I20
sb(lp384
(S'15:31'
p385
S'16:09'
p386
tp387
a(S'17:37'
p388
S'18:16'
p389
tp390
as.