(dp0
ccopy_reg
_reconstructor
p1
(cmachine
ClosedMachine
p2
c__builtin__
object
p3
Ntp4
Rp5
(dp6
S'machine_id'
p7
I1
sb(lp8
(S'09:23'
p9
S'10:02'
p10
tp11
a(S'10:47'
p12
S'11:24'
p13
tp14
a(S'12:21'
p15
S'13:00'
p16
tp17
a(S'16:29'
p18
S'17:09'
p19
tp20
a(S'18:19'
p21
S'18:58'
p22
tp23
asg1
(g2
g3
Ntp24
Rp25
(dp26
g7
I2
sb(lp27
(S'09:23'
p28
S'09:53'
p29
tp30
a(S'10:47'
p31
S'11:35'
p32
tp33
a(S'12:21'
p34
S'13:00'
p35
tp36
a(S'18:19'
p37
S'18:58'
p38
tp39
asg1
(g2
g3
Ntp40
Rp41
(dp42
g7
I3
sb(lp43
(S'09:28'
p44
S'10:01'
p45
tp46
a(S'10:47'
p47
S'11:32'
p48
tp49
a(S'12:13'
p50
S'12:51'
p51
tp52
a(S'14:00'
p53
S'14:38'
p54
tp55
a(S'18:48'
p56
S'19:27'
p57
tp58
asg1
(g2
g3
Ntp59
Rp60
(dp61
g7
I4
sb(lp62
(S'08:43'
p63
S'09:28'
p64
tp65
a(S'10:48'
p66
S'11:34'
p67
tp68
a(S'12:13'
p69
S'12:52'
p70
tp71
a(S'14:00'
p72
S'14:39'
p73
tp74
a(S'15:13'
p75
S'16:00'
p76
tp77
a(S'16:30'
p78
S'17:09'
p79
tp80
a(S'18:19'
p81
S'18:49'
p82
tp83
asg1
(g2
g3
Ntp84
Rp85
(dp86
g7
I5
sb(lp87
(S'08:05'
p88
S'08:44'
p89
tp90
a(S'10:06'
p91
S'10:53'
p92
tp93
a(S'12:37'
p94
S'13:15'
p95
tp96
a(S'13:32'
p97
S'14:19'
p98
tp99
a(S'14:41'
p100
S'15:20'
p101
tp102
asg1
(g2
g3
Ntp103
Rp104
(dp105
g7
I6
sb(lp106
(S'09:30'
p107
S'10:09'
p108
tp109
a(S'12:37'
p110
S'13:16'
p111
tp112
a(S'13:31'
p113
S'14:09'
p114
tp115
a(S'14:59'
p116
S'15:38'
p117
tp118
asg1
(g2
g3
Ntp119
Rp120
(dp121
g7
I7
sb(lp122
(S'13:24'
p123
S'14:02'
p124
tp125
a(S'14:59'
p126
S'15:38'
p127
tp128
a(S'17:01'
p129
S'17:39'
p130
tp131
asg1
(g2
g3
Ntp132
Rp133
(dp134
g7
I8
sb(lp135
(S'11:27'
p136
S'12:06'
p137
tp138
a(S'13:30'
p139
S'14:40'
p140
tp141
asg1
(g2
g3
Ntp142
Rp143
(dp144
g7
I9
sb(lp145
(S'12:52'
p146
S'13:31'
p147
tp148
a(S'14:41'
p149
S'15:19'
p150
tp151
asg1
(g2
g3
Ntp152
Rp153
(dp154
g7
I10
sb(lp155
(S'14:42'
p156
S'15:00'
p157
tp158
asg1
(g2
g3
Ntp159
Rp160
(dp161
g7
I11
sb(lp162
(S'12:52'
p163
S'13:31'
p164
tp165
a(S'19:00'
p166
S'19:38'
p167
tp168
asg1
(g2
g3
Ntp169
Rp170
(dp171
g7
I12
sb(lp172
(S'09:50'
p173
S'10:26'
p174
tp175
a(S'10:42'
p176
S'11:21'
p177
tp178
a(S'12:52'
p179
S'13:31'
p180
tp181
a(S'14:39'
p182
S'15:17'
p183
tp184
a(S'16:55'
p185
S'17:35'
p186
tp187
a(S'18:11'
p188
S'18:44'
p189
tp190
asg1
(g2
g3
Ntp191
Rp192
(dp193
g7
I13
sb(lp194
(S'11:52'
p195
S'12:30'
p196
tp197
a(S'14:00'
p198
S'14:30'
p199
tp200
a(S'16:30'
p201
S'17:09'
p202
tp203
a(S'18:09'
p204
S'18:48'
p205
tp206
asg1
(g2
g3
Ntp207
Rp208
(dp209
g7
I14
sb(lp210
(S'11:52'
p211
S'12:29'
p212
tp213
a(S'14:00'
p214
S'14:39'
p215
tp216
a(S'16:55'
p217
S'17:32'
p218
tp219
a(S'18:09'
p220
S'18:48'
p221
tp222
asg1
(g2
g3
Ntp223
Rp224
(dp225
g7
I15
sb(lp226
(S'11:52'
p227
S'12:25'
p228
tp229
a(S'14:00'
p230
S'14:34'
p231
tp232
a(S'16:56'
p233
S'17:37'
p234
tp235
a(S'18:06'
p236
S'18:44'
p237
tp238
asg1
(g2
g3
Ntp239
Rp240
(dp241
g7
I16
sb(lp242
(S'11:52'
p243
S'12:29'
p244
tp245
a(S'16:02'
p246
S'16:53'
p247
tp248
a(S'17:01'
p249
S'17:31'
p250
tp251
a(S'17:44'
p252
S'18:23'
p253
tp254
a(S'18:51'
p255
S'19:38'
p256
tp257
asg1
(g2
g3
Ntp258
Rp259
(dp260
g7
I17
sb(lp261
(S'10:29'
p262
S'10:59'
p263
tp264
a(S'17:44'
p265
S'18:22'
p266
tp267
asg1
(g2
g3
Ntp268
Rp269
(dp270
g7
I18
sb(lp271
(S'10:29'
p272
S'11:06'
p273
tp274
a(S'17:44'
p275
S'18:20'
p276
tp277
asg1
(g2
g3
Ntp278
Rp279
(dp280
g7
I19
sb(lp281
(S'12:52'
p282
S'13:29'
p283
tp284
a(S'16:02'
p285
S'16:53'
p286
tp287
a(S'18:52'
p288
Ntp289
asg1
(g2
g3
Ntp290
Rp291
(dp292
g7
I20
sb(lp293
(S'12:50'
p294
S'13:20'
p295
tp296
a(S'13:34'
p297
S'14:25'
p298
tp299
as.