(dp0
ccopy_reg
_reconstructor
p1
(cmachine
ClosedMachine
p2
c__builtin__
object
p3
Ntp4
Rp5
(dp6
S'machine_id'
p7
I1
sb(lp8
(S'07:11'
p9
S'07:56'
p10
tp11
a(S'09:53'
p12
S'11:01'
p13
tp14
a(S'11:35'
p15
S'12:14'
p16
tp17
a(S'12:38'
p18
S'13:25'
p19
tp20
a(S'13:42'
p21
S'14:21'
p22
tp23
a(S'15:25'
p24
S'16:04'
p25
tp26
a(S'17:10'
p27
S'17:40'
p28
tp29
asg1
(g2
g3
Ntp30
Rp31
(dp32
g7
I2
sb(lp33
(S'09:53'
p34
S'11:04'
p35
tp36
a(S'11:35'
p37
S'12:15'
p38
tp39
a(S'12:38'
p40
S'13:15'
p41
tp42
a(S'13:42'
p43
S'14:12'
p44
tp45
a(S'15:25'
p46
S'16:04'
p47
tp48
a(S'17:10'
p49
S'17:48'
p50
tp51
asg1
(g2
g3
Ntp52
Rp53
(dp54
g7
I3
sb(lp55
(S'09:53'
p56
S'11:01'
p57
tp58
a(S'11:35'
p59
S'12:05'
p60
tp61
a(S'12:36'
p62
S'13:16'
p63
tp64
a(S'13:42'
p65
S'14:33'
p66
tp67
a(S'15:25'
p68
S'16:03'
p69
tp70
a(S'19:36'
p71
Ntp72
asg1
(g2
g3
Ntp73
Rp74
(dp75
g7
I4
sb(lp76
(S'10:22'
p77
S'10:59'
p78
tp79
a(S'11:09'
p80
S'11:39'
p81
tp82
a(S'11:53'
p83
S'12:26'
p84
tp85
a(S'12:47'
p86
S'13:25'
p87
tp88
a(S'15:15'
p89
S'16:10'
p90
tp91
a(S'16:31'
p92
S'17:10'
p93
tp94
a(S'18:56'
p95
S'19:33'
p96
tp97
asg1
(g2
g3
Ntp98
Rp99
(dp100
g7
I5
sb(lp101
(S'10:22'
p102
S'11:00'
p103
tp104
a(S'11:09'
p105
S'11:49'
p106
tp107
a(S'11:53'
p108
S'12:31'
p109
tp110
a(S'12:45'
p111
S'13:28'
p112
tp113
a(S'15:39'
p114
S'16:12'
p115
tp116
a(S'16:17'
p117
S'16:56'
p118
tp119
a(S'18:57'
p120
S'19:35'
p121
tp122
asg1
(g2
g3
Ntp123
Rp124
(dp125
g7
I6
sb(lp126
(S'10:44'
p127
S'11:31'
p128
tp129
a(S'11:53'
p130
S'12:31'
p131
tp132
a(S'12:43'
p133
S'13:20'
p134
tp135
a(S'16:12'
p136
S'17:02'
p137
tp138
a(S'17:36'
p139
S'18:23'
p140
tp141
asg1
(g2
g3
Ntp142
Rp143
(dp144
g7
I7
sb(lp145
(S'10:44'
p146
S'11:31'
p147
tp148
a(S'12:25'
p149
S'13:04'
p150
tp151
a(S'13:24'
p152
S'14:02'
p153
tp154
a(S'16:12'
p155
S'16:46'
p156
tp157
a(S'17:35'
p158
S'18:32'
p159
tp160
asg1
(g2
g3
Ntp161
Rp162
(dp163
g7
I8
sb(lp164
(S'07:05'
p165
S'07:44'
p166
tp167
a(S'11:50'
p168
S'12:42'
p169
tp170
a(S'12:50'
p171
S'13:41'
p172
tp173
a(S'15:25'
p174
S'16:04'
p175
tp176
asg1
(g2
g3
Ntp177
Rp178
(dp179
g7
I9
sb(lp180
(S'07:04'
p181
S'07:44'
p182
tp183
a(S'10:52'
p184
S'11:38'
p185
tp186
a(S'12:02'
p187
S'12:41'
p188
tp189
a(S'13:05'
p190
S'13:44'
p191
tp192
a(S'15:25'
p193
S'16:03'
p194
tp195
asg1
(g2
g3
Ntp196
Rp197
(dp198
g7
I10
sb(lp199
(S'07:04'
p200
S'07:42'
p201
tp202
a(S'10:52'
p203
S'11:38'
p204
tp205
a(S'12:38'
p206
S'13:15'
p207
tp208
a(S'16:12'
p209
S'16:45'
p210
tp211
a(S'17:32'
p212
S'18:10'
p213
tp214
asg1
(g2
g3
Ntp215
Rp216
(dp217
g7
I11
sb(lp218
(S'07:04'
p219
S'07:42'
p220
tp221
a(S'11:50'
p222
S'12:32'
p223
tp224
a(S'12:52'
p225
S'12:57'
p226
tp227
a(S'13:54'
p228
S'14:33'
p229
tp230
asg1
(g2
g3
Ntp231
Rp232
(dp233
g7
I12
sb(lp234
(S'08:10'
p235
S'08:49'
p236
tp237
a(S'12:28'
p238
S'13:17'
p239
tp240
a(S'16:01'
p241
S'16:39'
p242
tp243
asg1
(g2
g3
Ntp244
Rp245
(dp246
g7
I13
sb(lp247
(S'08:10'
p248
S'08:49'
p249
tp250
a(S'10:48'
p251
S'11:27'
p252
tp253
a(S'11:54'
p254
S'12:31'
p255
tp256
a(S'16:37'
p257
S'17:16'
p258
tp259
asg1
(g2
g3
Ntp260
Rp261
(dp262
g7
I14
sb(lp263
(S'08:10'
p264
S'08:48'
p265
tp266
a(S'10:48'
p267
S'11:26'
p268
tp269
a(S'11:54'
p270
S'12:27'
p271
tp272
a(S'13:42'
p273
S'14:20'
p274
tp275
a(S'17:32'
p276
S'18:11'
p277
tp278
asg1
(g2
g3
Ntp279
Rp280
(dp281
g7
I15
sb(lp282
(S'08:19'
p283
S'09:14'
p284
tp285
a(S'10:49'
p286
S'11:29'
p287
tp288
a(S'12:13'
p289
S'12:53'
p290
tp291
a(S'13:26'
p292
S'14:11'
p293
tp294
a(S'16:02'
p295
S'17:12'
p296
tp297
asg1
(g2
g3
Ntp298
Rp299
(dp300
g7
I16
sb(lp301
(S'07:17'
p302
S'07:57'
p303
tp304
a(S'11:22'
p305
S'11:59'
p306
tp307
a(S'12:39'
p308
S'13:31'
p309
tp310
a(S'16:02'
p311
S'17:29'
p312
tp313
asg1
(g2
g3
Ntp314
Rp315
(dp316
g7
I17
sb(lp317
(S'07:17'
p318
S'08:08'
p319
tp320
a(S'10:11'
p321
S'10:49'
p322
tp323
a(S'12:28'
p324
S'13:06'
p325
tp326
a(S'13:24'
p327
S'14:02'
p328
tp329
a(S'16:02'
p330
S'16:54'
p331
tp332
a(S'19:16'
p333
S'19:54'
p334
tp335
asg1
(g2
g3
Ntp336
Rp337
(dp338
g7
I18
sb(lp339
(S'07:17'
p340
S'07:55'
p341
tp342
a(S'11:07'
p343
S'11:52'
p344
tp345
a(S'12:13'
p346
S'12:52'
p347
tp348
a(S'13:24'
p349
S'13:55'
p350
tp351
a(S'16:02'
p352
S'16:50'
p353
tp354
a(S'19:16'
p355
S'19:55'
p356
tp357
asg1
(cmachine
BrokenDownMachine
p358
g3
Ntp359
Rp360
(dp361
g7
I19
sb(lp362
S'Ute av drift'
p363
asg1
(g2
g3
Ntp364
Rp365
(dp366
g7
I20
sb(lp367
(S'10:51'
p368
S'11:30'
p369
tp370
a(S'16:11'
p371
S'17:01'
p372
tp373
a(S'17:35'
p374
S'18:22'
p375
tp376
a(S'18:59'
p377
S'19:38'
p378
tp379
as.