(dp0
ccopy_reg
_reconstructor
p1
(cmachine
ClosedMachine
p2
c__builtin__
object
p3
Ntp4
Rp5
(dp6
S'machine_id'
p7
I1
sb(lp8
(S'08:43'
p9
S'09:21'
p10
tp11
a(S'10:43'
p12
S'11:20'
p13
tp14
a(S'13:19'
p15
S'14:14'
p16
tp17
a(S'14:35'
p18
S'15:20'
p19
tp20
a(S'15:30'
p21
S'16:15'
p22
tp23
a(S'16:48'
p24
S'17:35'
p25
tp26
asg1
(g2
g3
Ntp27
Rp28
(dp29
g7
I2
sb(lp30
(S'08:43'
p31
S'09:23'
p32
tp33
a(S'10:57'
p34
S'11:35'
p35
tp36
a(S'12:54'
p37
S'13:33'
p38
tp39
a(S'18:21'
p40
S'19:00'
p41
tp42
asg1
(g2
g3
Ntp43
Rp44
(dp45
g7
I3
sb(lp46
(S'08:43'
p47
S'09:31'
p48
tp49
a(S'10:47'
p50
S'11:24'
p51
tp52
a(S'12:35'
p53
S'13:26'
p54
tp55
a(S'13:42'
p56
S'14:29'
p57
tp58
a(S'14:35'
p59
S'16:38'
p60
tp61
a(S'17:06'
p62
S'17:45'
p63
tp64
a(S'18:10'
p65
S'18:48'
p66
tp67
asg1
(g2
g3
Ntp68
Rp69
(dp70
g7
I4
sb(lp71
(S'08:44'
p72
S'09:23'
p73
tp74
a(S'10:57'
p75
S'11:36'
p76
tp77
a(S'12:35'
p78
S'13:26'
p79
tp80
a(S'14:06'
p81
S'14:43'
p82
tp83
a(S'14:53'
p84
S'15:38'
p85
tp86
a(S'17:02'
p87
S'17:40'
p88
tp89
a(S'18:11'
p90
S'18:50'
p91
tp92
asg1
(g2
g3
Ntp93
Rp94
(dp95
g7
I5
sb(lp96
(S'08:43'
p97
S'09:35'
p98
tp99
a(S'10:13'
p100
S'10:59'
p101
tp102
a(S'11:10'
p103
S'11:50'
p104
tp105
a(S'12:57'
p106
S'13:34'
p107
tp108
a(S'15:30'
p109
S'16:21'
p110
tp111
a(S'17:06'
p112
S'17:46'
p113
tp114
a(S'18:09'
p115
S'18:49'
p116
tp117
asg1
(g2
g3
Ntp118
Rp119
(dp120
g7
I6
sb(lp121
(S'12:59'
p122
S'13:44'
p123
tp124
a(S'14:06'
p125
S'14:46'
p126
tp127
a(S'14:53'
p128
S'15:32'
p129
tp130
a(S'16:18'
p131
S'17:09'
p132
tp133
a(S'19:13'
p134
S'19:30'
p135
tp136
a(S'19:48'
p137
Ntp138
asg1
(g2
g3
Ntp139
Rp140
(dp141
g7
I7
sb(lp142
(S'11:02'
p143
S'11:38'
p144
tp145
a(S'13:01'
p146
S'14:10'
p147
tp148
a(S'14:17'
p149
S'15:28'
p150
tp151
a(S'15:33'
p152
S'16:12'
p153
tp154
a(S'17:23'
p155
S'19:32'
p156
tp157
a(S'19:48'
p158
Ntp159
asg1
(g2
g3
Ntp160
Rp161
(dp162
g7
I8
sb(lp163
(S'08:41'
p164
S'09:27'
p165
tp166
a(S'12:30'
p167
S'13:09'
p168
tp169
a(S'13:49'
p170
S'14:28'
p171
tp172
a(S'15:40'
p173
S'16:18'
p174
tp175
a(S'17:18'
p176
S'17:56'
p177
tp178
a(S'19:11'
p179
Ntp180
asg1
(g2
g3
Ntp181
Rp182
(dp183
g7
I9
sb(lp184
(S'08:41'
p185
S'09:28'
p186
tp187
a(S'12:30'
p188
S'13:10'
p189
tp190
a(S'14:43'
p191
S'15:21'
p192
tp193
a(S'16:03'
p194
S'16:42'
p195
tp196
a(S'17:18'
p197
S'17:57'
p198
tp199
asg1
(g2
g3
Ntp200
Rp201
(dp202
g7
I10
sb(lp203
(S'10:41'
p204
S'11:18'
p205
tp206
a(S'12:53'
p207
S'13:30'
p208
tp209
a(S'14:17'
p210
S'14:54'
p211
tp212
a(S'15:35'
p213
S'16:23'
p214
tp215
a(S'17:23'
p216
S'18:10'
p217
tp218
asg1
(g2
g3
Ntp219
Rp220
(dp221
g7
I11
sb(lp222
(S'10:41'
p223
S'11:20'
p224
tp225
a(S'12:53'
p226
S'13:30'
p227
tp228
a(S'15:42'
p229
S'16:33'
p230
tp231
a(S'16:50'
p232
S'17:27'
p233
tp234
asg1
(g2
g3
Ntp235
Rp236
(dp237
g7
I12
sb(lp238
(S'09:58'
p239
S'10:36'
p240
tp241
a(S'11:02'
p242
S'11:41'
p243
tp244
a(S'12:09'
p245
S'12:46'
p246
tp247
a(S'12:54'
p248
S'13:29'
p249
tp250
a(S'15:42'
p251
S'16:21'
p252
tp253
a(S'16:55'
p254
S'17:32'
p255
tp256
asg1
(g2
g3
Ntp257
Rp258
(dp259
g7
I13
sb(lp260
(S'10:13'
p261
S'10:50'
p262
tp263
a(S'11:35'
p264
S'12:13'
p265
tp266
a(S'12:53'
p267
S'13:31'
p268
tp269
a(S'14:11'
p270
S'14:42'
p271
tp272
a(S'15:04'
p273
S'15:44'
p274
tp275
a(S'15:58'
p276
S'16:50'
p277
tp278
a(S'17:49'
p279
S'18:37'
p280
tp281
asg1
(g2
g3
Ntp282
Rp283
(dp284
g7
I14
sb(lp285
(S'10:14'
p286
S'10:56'
p287
tp288
a(S'12:53'
p289
S'13:30'
p290
tp291
a(S'14:11'
p292
S'14:41'
p293
tp294
a(S'15:05'
p295
S'15:44'
p296
tp297
a(S'15:58'
p298
S'16:37'
p299
tp300
a(S'17:50'
p301
S'18:37'
p302
tp303
a(S'18:58'
p304
S'19:37'
p305
tp306
asg1
(g2
g3
Ntp307
Rp308
(dp309
g7
I15
sb(lp310
(S'10:14'
p311
S'11:02'
p312
tp313
a(S'12:35'
p314
S'13:08'
p315
tp316
a(S'13:11'
p317
S'13:52'
p318
tp319
a(S'14:18'
p320
S'14:56'
p321
tp322
a(S'15:35'
p323
S'16:16'
p324
tp325
a(S'17:32'
p326
S'18:20'
p327
tp328
asg1
(g2
g3
Ntp329
Rp330
(dp331
g7
I16
sb(lp332
(S'10:41'
p333
S'11:20'
p334
tp335
a(S'12:35'
p336
S'13:15'
p337
tp338
a(S'14:08'
p339
S'14:45'
p340
tp341
a(S'15:40'
p342
S'16:18'
p343
tp344
a(S'17:23'
p345
S'18:01'
p346
tp347
asg1
(g2
g3
Ntp348
Rp349
(dp350
g7
I17
sb(lp351
(S'10:41'
p352
S'11:18'
p353
tp354
a(S'12:35'
p355
S'13:28'
p356
tp357
a(S'14:43'
p358
S'15:41'
p359
tp360
a(S'16:04'
p361
S'16:34'
p362
tp363
a(S'17:32'
p364
S'18:18'
p365
tp366
asg1
(g2
g3
Ntp367
Rp368
(dp369
g7
I18
sb(lp370
(S'13:49'
p371
S'14:27'
p372
tp373
a(S'16:19'
p374
S'16:56'
p375
tp376
a(S'18:08'
p377
S'18:47'
p378
tp379
asg1
(cmachine
BrokenDownMachine
p380
g3
Ntp381
Rp382
(dp383
g7
I19
sb(lp384
S'Ute av drift'
p385
asg1
(g2
g3
Ntp386
Rp387
(dp388
g7
I20
sb(lp389
(S'12:18'
p390
S'13:06'
p391
tp392
a(S'14:06'
p393
S'14:43'
p394
tp395
a(S'14:52'
p396
S'15:25'
p397
tp398
a(S'17:43'
p399
S'18:23'
p400
tp401
a(S'19:17'
p402
Ntp403
as.