(dp0
ccopy_reg
_reconstructor
p1
(cmachine
ClosedMachine
p2
c__builtin__
object
p3
Ntp4
Rp5
(dp6
S'machine_id'
p7
I1
sb(lp8
(S'08:09'
p9
S'09:03'
p10
tp11
a(S'14:45'
p12
S'15:23'
p13
tp14
a(S'16:17'
p15
S'16:57'
p16
tp17
a(S'17:49'
p18
S'18:47'
p19
tp20
asg1
(g2
g3
Ntp21
Rp22
(dp23
g7
I2
sb(lp24
(S'08:09'
p25
S'08:47'
p26
tp27
a(S'14:21'
p28
S'15:07'
p29
tp30
a(S'15:18'
p31
S'15:55'
p32
tp33
a(S'16:35'
p34
S'17:26'
p35
tp36
asg1
(g2
g3
Ntp37
Rp38
(dp39
g7
I3
sb(lp40
(S'13:40'
p41
S'14:19'
p42
tp43
a(S'14:33'
p44
S'15:19'
p45
tp46
a(S'16:18'
p47
S'16:56'
p48
tp49
asg1
(g2
g3
Ntp50
Rp51
(dp52
g7
I4
sb(lp53
(S'08:19'
p54
S'08:58'
p55
tp56
a(S'13:50'
p57
S'14:27'
p58
tp59
a(S'15:16'
p60
S'16:03'
p61
tp62
a(S'16:35'
p63
S'17:12'
p64
tp65
a(S'19:17'
p66
S'19:55'
p67
tp68
asg1
(g2
g3
Ntp69
Rp70
(dp71
g7
I5
sb(lp72
(S'09:11'
p73
S'09:48'
p74
tp75
a(S'13:50'
p76
S'14:29'
p77
tp78
a(S'15:16'
p79
S'16:02'
p80
tp81
a(S'16:35'
p82
S'17:05'
p83
tp84
a(S'19:18'
p85
S'19:57'
p86
tp87
asg1
(g2
g3
Ntp88
Rp89
(dp90
g7
I6
sb(lp91
(S'11:08'
p92
S'11:47'
p93
tp94
a(S'14:41'
p95
S'15:21'
p96
tp97
a(S'16:35'
p98
S'17:14'
p99
tp100
asg1
(g2
g3
Ntp101
Rp102
(dp103
g7
I7
sb(lp104
(S'11:08'
p105
S'11:46'
p106
tp107
a(S'14:41'
p108
S'15:19'
p109
tp110
a(S'16:35'
p111
S'17:11'
p112
tp113
a(S'18:34'
p114
S'19:13'
p115
tp116
a(S'19:37'
p117
Ntp118
asg1
(g2
g3
Ntp119
Rp120
(dp121
g7
I8
sb(lp122
(S'08:50'
p123
S'09:38'
p124
tp125
a(S'11:44'
p126
S'12:40'
p127
tp128
a(S'13:04'
p129
S'13:42'
p130
tp131
a(S'14:15'
p132
S'15:02'
p133
tp134
a(S'15:55'
p135
S'16:34'
p136
tp137
a(S'16:58'
p138
S'17:39'
p139
tp140
asg1
(g2
g3
Ntp141
Rp142
(dp143
g7
I9
sb(lp144
(S'08:50'
p145
S'09:38'
p146
tp147
a(S'11:29'
p148
S'12:06'
p149
tp150
a(S'13:05'
p151
S'13:52'
p152
tp153
a(S'14:44'
p154
S'15:22'
p155
tp156
a(S'16:45'
p157
S'17:23'
p158
tp159
asg1
(g2
g3
Ntp160
Rp161
(dp162
g7
I10
sb(lp163
(S'08:51'
p164
S'09:39'
p165
tp166
a(S'11:11'
p167
S'11:50'
p168
tp169
a(S'16:58'
p170
S'17:36'
p171
tp172
asg1
(g2
g3
Ntp173
Rp174
(dp175
g7
I11
sb(lp176
(S'08:51'
p177
S'09:29'
p178
tp179
a(S'11:11'
p180
S'12:01'
p181
tp182
a(S'16:58'
p183
S'17:36'
p184
tp185
asg1
(g2
g3
Ntp186
Rp187
(dp188
g7
I12
sb(lp189
(S'08:51'
p190
S'09:38'
p191
tp192
a(S'11:10'
p193
S'11:43'
p194
tp195
a(S'16:38'
p196
S'16:43'
p197
tp198
a(S'18:02'
p199
S'18:41'
p200
tp201
asg1
(g2
g3
Ntp202
Rp203
(dp204
g7
I13
sb(lp205
(S'08:52'
p206
S'09:30'
p207
tp208
a(S'11:26'
p209
S'12:03'
p210
tp211
a(S'12:37'
p212
S'13:25'
p213
tp214
a(S'14:45'
p215
S'15:25'
p216
tp217
a(S'16:34'
p218
S'17:13'
p219
tp220
asg1
(g2
g3
Ntp221
Rp222
(dp223
g7
I14
sb(lp224
(S'11:26'
p225
S'12:04'
p226
tp227
a(S'12:37'
p228
S'13:16'
p229
tp230
a(S'14:42'
p231
S'15:29'
p232
tp233
a(S'16:34'
p234
S'17:13'
p235
tp236
a(S'17:26'
p237
S'18:02'
p238
tp239
asg1
(g2
g3
Ntp240
Rp241
(dp242
g7
I15
sb(lp243
(S'11:46'
p244
S'12:32'
p245
tp246
a(S'12:46'
p247
S'13:37'
p248
tp249
a(S'14:42'
p250
S'15:23'
p251
tp252
a(S'17:22'
p253
S'18:15'
p254
tp255
a(S'19:01'
p256
S'19:39'
p257
tp258
asg1
(g2
g3
Ntp259
Rp260
(dp261
g7
I16
sb(lp262
(S'11:26'
p263
S'12:03'
p264
tp265
a(S'12:34'
p266
S'13:14'
p267
tp268
a(S'14:42'
p269
S'15:30'
p270
tp271
a(S'17:00'
p272
S'17:45'
p273
tp274
a(S'19:01'
p275
S'19:40'
p276
tp277
asg1
(g2
g3
Ntp278
Rp279
(dp280
g7
I17
sb(lp281
(S'08:37'
p282
S'09:24'
p283
tp284
a(S'11:29'
p285
S'11:59'
p286
tp287
a(S'12:34'
p288
S'13:14'
p289
tp290
a(S'14:16'
p291
S'15:01'
p292
tp293
a(S'15:17'
p294
S'15:54'
p295
tp296
a(S'16:21'
p297
S'17:11'
p298
tp299
a(S'17:23'
p300
S'18:13'
p301
tp302
asg1
(g2
g3
Ntp303
Rp304
(dp305
g7
I18
sb(lp306
(S'07:14'
p307
S'07:52'
p308
tp309
a(S'10:36'
p310
S'11:14'
p311
tp312
a(S'11:30'
p313
S'12:17'
p314
tp315
a(S'14:15'
p316
S'15:02'
p317
tp318
a(S'17:17'
p319
S'17:54'
p320
tp321
asg1
(cmachine
BrokenDownMachine
p322
g3
Ntp323
Rp324
(dp325
g7
I19
sb(lp326
S'Ute av drift'
p327
asg1
(g2
g3
Ntp328
Rp329
(dp330
g7
I20
sb(lp331
(S'10:37'
p332
S'11:27'
p333
tp334
a(S'15:16'
p335
S'16:02'
p336
tp337
a(S'17:15'
p338
S'17:16'
p339
tp340
a(S'17:18'
p341
S'17:48'
p342
tp343
as.