(dp0
ccopy_reg
_reconstructor
p1
(cmachine
ClosedMachine
p2
c__builtin__
object
p3
Ntp4
Rp5
(dp6
S'machine_id'
p7
I1
sb(lp8
sg1
(g2
g3
Ntp9
Rp10
(dp11
g7
I2
sb(lp12
sg1
(g2
g3
Ntp13
Rp14
(dp15
g7
I3
sb(lp16
sg1
(g2
g3
Ntp17
Rp18
(dp19
g7
I4
sb(lp20
sg1
(g2
g3
Ntp21
Rp22
(dp23
g7
I5
sb(lp24
sg1
(g2
g3
Ntp25
Rp26
(dp27
g7
I6
sb(lp28
sg1
(g2
g3
Ntp29
Rp30
(dp31
g7
I7
sb(lp32
sg1
(g2
g3
Ntp33
Rp34
(dp35
g7
I8
sb(lp36
sg1
(g2
g3
Ntp37
Rp38
(dp39
g7
I9
sb(lp40
sg1
(g2
g3
Ntp41
Rp42
(dp43
g7
I10
sb(lp44
sg1
(g2
g3
Ntp45
Rp46
(dp47
g7
I11
sb(lp48
sg1
(g2
g3
Ntp49
Rp50
(dp51
g7
I12
sb(lp52
sg1
(g2
g3
Ntp53
Rp54
(dp55
g7
I13
sb(lp56
sg1
(g2
g3
Ntp57
Rp58
(dp59
g7
I14
sb(lp60
sg1
(g2
g3
Ntp61
Rp62
(dp63
g7
I15
sb(lp64
sg1
(g2
g3
Ntp65
Rp66
(dp67
g7
I16
sb(lp68
sg1
(g2
g3
Ntp69
Rp70
(dp71
g7
I17
sb(lp72
sg1
(g2
g3
Ntp73
Rp74
(dp75
g7
I18
sb(lp76
sg1
(g2
g3
Ntp77
Rp78
(dp79
g7
I19
sb(lp80
sg1
(g2
g3
Ntp81
Rp82
(dp83
g7
I20
sb(lp84
s.