(dp0
ccopy_reg
_reconstructor
p1
(cmachine
ClosedMachine
p2
c__builtin__
object
p3
Ntp4
Rp5
(dp6
S'machine_id'
p7
I1
sb(lp8
(S'10:38'
p9
S'11:29'
p10
tp11
a(S'14:23'
p12
S'15:01'
p13
tp14
a(S'17:34'
p15
S'18:04'
p16
tp17
asg1
(g2
g3
Ntp18
Rp19
(dp20
g7
I2
sb(lp21
(S'10:38'
p22
S'11:29'
p23
tp24
a(S'14:23'
p25
S'15:01'
p26
tp27
a(S'16:42'
p28
S'17:33'
p29
tp30
asg1
(g2
g3
Ntp31
Rp32
(dp33
g7
I3
sb(lp34
(S'10:28'
p35
S'11:05'
p36
tp37
a(S'16:42'
p38
S'17:22'
p39
tp40
a(S'18:23'
p41
S'19:03'
p42
tp43
asg1
(g2
g3
Ntp44
Rp45
(dp46
g7
I4
sb(lp47
(S'07:33'
p48
S'08:06'
p49
tp50
a(S'15:57'
p51
S'16:52'
p52
tp53
a(S'17:35'
p54
S'18:13'
p55
tp56
a(S'19:50'
p57
Ntp58
asg1
(g2
g3
Ntp59
Rp60
(dp61
g7
I5
sb(lp62
(S'11:18'
p63
S'11:51'
p64
tp65
a(S'13:07'
p66
S'13:54'
p67
tp68
a(S'13:59'
p69
S'14:38'
p70
tp71
a(S'15:57'
p72
S'16:51'
p73
tp74
a(S'17:35'
p75
S'18:12'
p76
tp77
a(S'19:52'
p78
Ntp79
asg1
(g2
g3
Ntp80
Rp81
(dp82
g7
I6
sb(lp83
(S'11:04'
p84
S'11:43'
p85
tp86
a(S'13:58'
p87
S'14:36'
p88
tp89
a(S'16:12'
p90
S'16:50'
p91
tp92
asg1
(g2
g3
Ntp93
Rp94
(dp95
g7
I7
sb(lp96
(S'09:35'
p97
S'10:12'
p98
tp99
a(S'11:01'
p100
S'11:39'
p101
tp102
a(S'13:59'
p103
S'14:38'
p104
tp105
a(S'15:21'
p106
S'15:54'
p107
tp108
a(S'16:12'
p109
S'16:51'
p110
tp111
asg1
(g2
g3
Ntp112
Rp113
(dp114
g7
I8
sb(lp115
(S'11:28'
p116
S'12:08'
p117
tp118
a(S'15:10'
p119
S'15:50'
p120
tp121
a(S'17:36'
p122
S'18:15'
p123
tp124
a(S'19:54'
p125
Ntp126
asg1
(g2
g3
Ntp127
Rp128
(dp129
g7
I9
sb(lp130
(S'11:29'
p131
S'12:16'
p132
tp133
a(S'16:10'
p134
S'16:48'
p135
tp136
a(S'19:54'
p137
Ntp138
asg1
(g2
g3
Ntp139
Rp140
(dp141
g7
I10
sb(lp142
(S'06:59'
p143
S'07:48'
p144
tp145
a(S'16:10'
p146
S'16:48'
p147
tp148
asg1
(g2
g3
Ntp149
Rp150
(dp151
g7
I11
sb(lp152
(S'06:59'
p153
S'07:37'
p154
tp155
a(S'11:49'
p156
S'12:26'
p157
tp158
a(S'18:24'
p159
S'19:18'
p160
tp161
asg1
(g2
g3
Ntp162
Rp163
(dp164
g7
I12
sb(lp165
(S'06:59'
p166
S'07:38'
p167
tp168
a(S'18:24'
p169
S'19:00'
p170
tp171
asg1
(g2
g3
Ntp172
Rp173
(dp174
g7
I13
sb(lp175
(S'15:23'
p176
S'16:01'
p177
tp178
a(S'16:43'
p179
S'17:16'
p180
tp181
a(S'19:31'
p182
S'19:53'
p183
tp184
asg1
(g2
g3
Ntp185
Rp186
(dp187
g7
I14
sb(lp188
(S'08:32'
p189
S'09:19'
p190
tp191
a(S'15:23'
p192
S'16:02'
p193
tp194
a(S'16:40'
p195
S'17:18'
p196
tp197
a(S'18:14'
p198
S'19:01'
p199
tp200
asg1
(g2
g3
Ntp201
Rp202
(dp203
g7
I15
sb(lp204
(S'08:32'
p205
S'09:21'
p206
tp207
a(S'15:23'
p208
S'16:03'
p209
tp210
a(S'16:40'
p211
S'17:22'
p212
tp213
a(S'18:14'
p214
S'19:01'
p215
tp216
asg1
(g2
g3
Ntp217
Rp218
(dp219
g7
I16
sb(lp220
(S'17:59'
p221
S'18:50'
p222
tp223
a(S'19:49'
p224
Ntp225
asg1
(g2
g3
Ntp226
Rp227
(dp228
g7
I17
sb(lp229
(S'15:19'
p230
S'15:50'
p231
tp232
a(S'18:24'
p233
S'19:04'
p234
tp235
asg1
(g2
g3
Ntp236
Rp237
(dp238
g7
I18
sb(lp239
(S'11:33'
p240
S'12:26'
p241
tp242
a(S'15:17'
p243
S'15:58'
p244
tp245
a(S'16:10'
p246
S'16:42'
p247
tp248
asg1
(cmachine
BrokenDownMachine
p249
g3
Ntp250
Rp251
(dp252
g7
I19
sb(lp253
S'Ute av drift'
p254
asg1
(g2
g3
Ntp255
Rp256
(dp257
g7
I20
sb(lp258
(S'13:57'
p259
S'14:35'
p260
tp261
a(S'16:10'
p262
S'16:11'
p263
tp264
a(S'17:32'
p265
S'18:14'
p266
tp267
a(S'18:28'
p268
S'19:05'
p269
tp270
a(S'19:52'
p271
Ntp272
as.