(dp0
ccopy_reg
_reconstructor
p1
(cmachine
AvailableMachine
p2
c__builtin__
object
p3
Ntp4
Rp5
(dp6
S'machine_id'
p7
I1
sb(lp8
sg1
(g2
g3
Ntp9
Rp10
(dp11
g7
I2
sb(lp12
sg1
(g2
g3
Ntp13
Rp14
(dp15
g7
I3
sb(lp16
(S'13:49'
p17
S'14:02'
p18
tp19
asg1
(cmachine
OccupiedMachine
p20
g3
Ntp21
Rp22
(dp23
g7
I4
sb(lp24
(S'13:44'
p25
S'14:02'
p26
tp27
asg1
(g2
g3
Ntp28
Rp29
(dp30
g7
I5
sb(lp31
(S'14:02'
p32
Ntp33
asg1
(g20
g3
Ntp34
Rp35
(dp36
g7
I6
sb(lp37
(S'13:59'
p38
S'14:22'
p39
tp40
asg1
(g2
g3
Ntp41
Rp42
(dp43
g7
I7
sb(lp44
(S'14:02'
p45
Ntp46
asg1
(g20
g3
Ntp47
Rp48
(dp49
g7
I8
sb(lp50
(S'13:54'
p51
S'14:22'
p52
tp53
asg1
(g20
g3
Ntp54
Rp55
(dp56
g7
I9
sb(lp57
(S'13:55'
p58
Ntp59
asg1
(g2
g3
Ntp60
Rp61
(dp62
g7
I10
sb(lp63
sg1
(g2
g3
Ntp64
Rp65
(dp66
g7
I11
sb(lp67
(S'13:53'
p68
Ntp69
asg1
(g2
g3
Ntp70
Rp71
(dp72
g7
I12
sb(lp73
sg1
(g2
g3
Ntp74
Rp75
(dp76
g7
I13
sb(lp77
(S'14:22'
p78
Ntp79
asg1
(g20
g3
Ntp80
Rp81
(dp82
g7
I14
sb(lp83
(S'13:53'
p84
S'14:02'
p85
tp86
asg1
(cmachine
BrokenDownMachine
p87
g3
Ntp88
Rp89
(dp90
g7
I15
sb(lp91
S'Ute av drift'
p92
asg1
(g2
g3
Ntp93
Rp94
(dp95
g7
I16
sb(lp96
sg1
(g2
g3
Ntp97
Rp98
(dp99
g7
I17
sb(lp100
(S'13:44'
p101
S'14:02'
p102
tp103
asg1
(g2
g3
Ntp104
Rp105
(dp106
g7
I18
sb(lp107
(S'14:02'
p108
Ntp109
asg1
(g2
g3
Ntp110
Rp111
(dp112
g7
I19
sb(lp113
(S'14:05'
p114
Ntp115
asg1
(g2
g3
Ntp116
Rp117
(dp118
g7
I20
sb(lp119
s.