(dp0
ccopy_reg
_reconstructor
p1
(cmachine
AvailableMachine
p2
c__builtin__
object
p3
Ntp4
Rp5
(dp6
S'machine_id'
p7
I1
sb(lp8
(S'15:48'
p9
S'16:27'
p10
tp11
asg1
(g2
g3
Ntp12
Rp13
(dp14
g7
I2
sb(lp15
(S'15:48'
p16
S'16:38'
p17
tp18
asg1
(g2
g3
Ntp19
Rp20
(dp21
g7
I3
sb(lp22
(S'13:49'
p23
S'14:02'
p24
tp25
a(S'15:03'
p26
S'15:40'
p27
tp28
asg1
(cmachine
OccupiedMachine
p29
g3
Ntp30
Rp31
(dp32
g7
I4
sb(lp33
(S'13:44'
p34
S'14:02'
p35
tp36
a(S'15:03'
p37
S'15:42'
p38
tp39
asg1
(g2
g3
Ntp40
Rp41
(dp42
g7
I5
sb(lp43
(S'14:02'
p44
S'14:52'
p45
tp46
asg1
(g29
g3
Ntp47
Rp48
(dp49
g7
I6
sb(lp50
(S'13:59'
p51
S'14:22'
p52
tp53
asg1
(g2
g3
Ntp54
Rp55
(dp56
g7
I7
sb(lp57
(S'14:02'
p58
S'14:52'
p59
tp60
asg1
(g29
g3
Ntp61
Rp62
(dp63
g7
I8
sb(lp64
(S'13:54'
p65
S'14:22'
p66
tp67
asg1
(g29
g3
Ntp68
Rp69
(dp70
g7
I9
sb(lp71
(S'13:55'
p72
S'14:39'
p73
tp74
asg1
(g2
g3
Ntp75
Rp76
(dp77
g7
I10
sb(lp78
(S'15:10'
p79
S'15:48'
p80
tp81
asg1
(g2
g3
Ntp82
Rp83
(dp84
g7
I11
sb(lp85
(S'13:53'
p86
S'14:52'
p87
tp88
a(S'15:10'
p89
S'16:02'
p90
tp91
asg1
(g2
g3
Ntp92
Rp93
(dp94
g7
I12
sb(lp95
(S'15:10'
p96
S'15:50'
p97
tp98
asg1
(g2
g3
Ntp99
Rp100
(dp101
g7
I13
sb(lp102
(S'14:22'
p103
S'15:04'
p104
tp105
asg1
(g29
g3
Ntp106
Rp107
(dp108
g7
I14
sb(lp109
(S'13:53'
p110
S'14:02'
p111
tp112
a(S'14:39'
p113
S'15:17'
p114
tp115
asg1
(cmachine
BrokenDownMachine
p116
g3
Ntp117
Rp118
(dp119
g7
I15
sb(lp120
S'Ute av drift'
p121
asg1
(g2
g3
Ntp122
Rp123
(dp124
g7
I16
sb(lp125
(S'14:39'
p126
S'15:16'
p127
tp128
asg1
(g2
g3
Ntp129
Rp130
(dp131
g7
I17
sb(lp132
(S'13:44'
p133
S'14:02'
p134
tp135
a(S'14:39'
p136
S'15:15'
p137
tp138
asg1
(g2
g3
Ntp139
Rp140
(dp141
g7
I18
sb(lp142
(S'14:02'
p143
S'14:39'
p144
tp145
asg1
(g2
g3
Ntp146
Rp147
(dp148
g7
I19
sb(lp149
(S'14:05'
p150
S'14:39'
p151
tp152
a(S'15:33'
p153
S'16:12'
p154
tp155
a(S'17:16'
p156
S'17:53'
p157
tp158
asg1
(g2
g3
Ntp159
Rp160
(dp161
g7
I20
sb(lp162
(S'15:32'
p163
S'16:17'
p164
tp165
a(S'17:15'
p166
S'17:48'
p167
tp168
as.