(dp0
ccopy_reg
_reconstructor
p1
(cmachine
AvailableMachine
p2
c__builtin__
object
p3
Ntp4
Rp5
(dp6
S'machine_id'
p7
I1
sb(lp8
sg1
(g2
g3
Ntp9
Rp10
(dp11
g7
I2
sb(lp12
sg1
(g2
g3
Ntp13
Rp14
(dp15
g7
I3
sb(lp16
(S'13:49'
p17
S'14:02'
p18
tp19
asg1
(cmachine
OccupiedMachine
p20
g3
Ntp21
Rp22
(dp23
g7
I4
sb(lp24
(S'13:44'
p25
S'14:02'
p26
tp27
asg1
(g2
g3
Ntp28
Rp29
(dp30
g7
I5
sb(lp31
(S'14:02'
p32
Ntp33
asg1
(g20
g3
Ntp34
Rp35
(dp36
g7
I6
sb(lp37
(S'13:59'
p38
S'14:22'
p39
tp40
asg1
(g2
g3
Ntp41
Rp42
(dp43
g7
I7
sb(lp44
(S'14:02'
p45
Ntp46
asg1
(g20
g3
Ntp47
Rp48
(dp49
g7
I8
sb(lp50
(S'13:54'
p51
S'14:22'
p52
tp53
asg1
(g20
g3
Ntp54
Rp55
(dp56
g7
I9
sb(lp57
(S'13:55'
p58
S'14:39'
p59
tp60
asg1
(g2
g3
Ntp61
Rp62
(dp63
g7
I10
sb(lp64
sg1
(g2
g3
Ntp65
Rp66
(dp67
g7
I11
sb(lp68
(S'13:53'
p69
Ntp70
asg1
(g2
g3
Ntp71
Rp72
(dp73
g7
I12
sb(lp74
sg1
(g2
g3
Ntp75
Rp76
(dp77
g7
I13
sb(lp78
(S'14:22'
p79
Ntp80
asg1
(g20
g3
Ntp81
Rp82
(dp83
g7
I14
sb(lp84
(S'13:53'
p85
S'14:02'
p86
tp87
a(S'14:39'
p88
Ntp89
asg1
(cmachine
BrokenDownMachine
p90
g3
Ntp91
Rp92
(dp93
g7
I15
sb(lp94
S'Ute av drift'
p95
asg1
(g2
g3
Ntp96
Rp97
(dp98
g7
I16
sb(lp99
(S'14:39'
p100
Ntp101
asg1
(g2
g3
Ntp102
Rp103
(dp104
g7
I17
sb(lp105
(S'13:44'
p106
S'14:02'
p107
tp108
a(S'14:39'
p109
Ntp110
asg1
(g2
g3
Ntp111
Rp112
(dp113
g7
I18
sb(lp114
(S'14:02'
p115
S'14:39'
p116
tp117
asg1
(g2
g3
Ntp118
Rp119
(dp120
g7
I19
sb(lp121
(S'14:05'
p122
S'14:39'
p123
tp124
asg1
(g2
g3
Ntp125
Rp126
(dp127
g7
I20
sb(lp128
s.