(dp0
ccopy_reg
_reconstructor
p1
(cmachine
AvailableMachine
p2
c__builtin__
object
p3
Ntp4
Rp5
(dp6
S'machine_id'
p7
I1
sb(lp8
sg1
(g2
g3
Ntp9
Rp10
(dp11
g7
I2
sb(lp12
sg1
(g2
g3
Ntp13
Rp14
(dp15
g7
I3
sb(lp16
(S'13:49'
p17
S'14:02'
p18
tp19
a(S'15:03'
p20
Ntp21
asg1
(cmachine
OccupiedMachine
p22
g3
Ntp23
Rp24
(dp25
g7
I4
sb(lp26
(S'13:44'
p27
S'14:02'
p28
tp29
a(S'15:03'
p30
Ntp31
asg1
(g2
g3
Ntp32
Rp33
(dp34
g7
I5
sb(lp35
(S'14:02'
p36
S'14:52'
p37
tp38
asg1
(g22
g3
Ntp39
Rp40
(dp41
g7
I6
sb(lp42
(S'13:59'
p43
S'14:22'
p44
tp45
asg1
(g2
g3
Ntp46
Rp47
(dp48
g7
I7
sb(lp49
(S'14:02'
p50
S'14:52'
p51
tp52
asg1
(g22
g3
Ntp53
Rp54
(dp55
g7
I8
sb(lp56
(S'13:54'
p57
S'14:22'
p58
tp59
asg1
(g22
g3
Ntp60
Rp61
(dp62
g7
I9
sb(lp63
(S'13:55'
p64
S'14:39'
p65
tp66
asg1
(g2
g3
Ntp67
Rp68
(dp69
g7
I10
sb(lp70
(S'15:10'
p71
Ntp72
asg1
(g2
g3
Ntp73
Rp74
(dp75
g7
I11
sb(lp76
(S'13:53'
p77
S'14:52'
p78
tp79
a(S'15:10'
p80
Ntp81
asg1
(g2
g3
Ntp82
Rp83
(dp84
g7
I12
sb(lp85
(S'15:10'
p86
Ntp87
asg1
(g2
g3
Ntp88
Rp89
(dp90
g7
I13
sb(lp91
(S'14:22'
p92
S'15:04'
p93
tp94
asg1
(g22
g3
Ntp95
Rp96
(dp97
g7
I14
sb(lp98
(S'13:53'
p99
S'14:02'
p100
tp101
a(S'14:39'
p102
Ntp103
asg1
(cmachine
BrokenDownMachine
p104
g3
Ntp105
Rp106
(dp107
g7
I15
sb(lp108
S'Ute av drift'
p109
asg1
(g2
g3
Ntp110
Rp111
(dp112
g7
I16
sb(lp113
(S'14:39'
p114
Ntp115
asg1
(g2
g3
Ntp116
Rp117
(dp118
g7
I17
sb(lp119
(S'13:44'
p120
S'14:02'
p121
tp122
a(S'14:39'
p123
Ntp124
asg1
(g2
g3
Ntp125
Rp126
(dp127
g7
I18
sb(lp128
(S'14:02'
p129
S'14:39'
p130
tp131
asg1
(g2
g3
Ntp132
Rp133
(dp134
g7
I19
sb(lp135
(S'14:05'
p136
S'14:39'
p137
tp138
asg1
(g2
g3
Ntp139
Rp140
(dp141
g7
I20
sb(lp142
s.