(dp0
ccopy_reg
_reconstructor
p1
(cmachine
AvailableMachine
p2
c__builtin__
object
p3
Ntp4
Rp5
(dp6
S'machine_id'
p7
I1
sb(lp8
sg1
(g2
g3
Ntp9
Rp10
(dp11
g7
I2
sb(lp12
sg1
(g2
g3
Ntp13
Rp14
(dp15
g7
I3
sb(lp16
(S'13:49'
p17
S'14:02'
p18
tp19
asg1
(cmachine
OccupiedMachine
p20
g3
Ntp21
Rp22
(dp23
g7
I4
sb(lp24
(S'13:44'
p25
S'14:02'
p26
tp27
asg1
(g2
g3
Ntp28
Rp29
(dp30
g7
I5
sb(lp31
(S'14:02'
p32
S'14:52'
p33
tp34
asg1
(g20
g3
Ntp35
Rp36
(dp37
g7
I6
sb(lp38
(S'13:59'
p39
S'14:22'
p40
tp41
asg1
(g2
g3
Ntp42
Rp43
(dp44
g7
I7
sb(lp45
(S'14:02'
p46
S'14:52'
p47
tp48
asg1
(g20
g3
Ntp49
Rp50
(dp51
g7
I8
sb(lp52
(S'13:54'
p53
S'14:22'
p54
tp55
asg1
(g20
g3
Ntp56
Rp57
(dp58
g7
I9
sb(lp59
(S'13:55'
p60
S'14:39'
p61
tp62
asg1
(g2
g3
Ntp63
Rp64
(dp65
g7
I10
sb(lp66
sg1
(g2
g3
Ntp67
Rp68
(dp69
g7
I11
sb(lp70
(S'13:53'
p71
S'14:52'
p72
tp73
asg1
(g2
g3
Ntp74
Rp75
(dp76
g7
I12
sb(lp77
sg1
(g2
g3
Ntp78
Rp79
(dp80
g7
I13
sb(lp81
(S'14:22'
p82
Ntp83
asg1
(g20
g3
Ntp84
Rp85
(dp86
g7
I14
sb(lp87
(S'13:53'
p88
S'14:02'
p89
tp90
a(S'14:39'
p91
Ntp92
asg1
(cmachine
BrokenDownMachine
p93
g3
Ntp94
Rp95
(dp96
g7
I15
sb(lp97
S'Ute av drift'
p98
asg1
(g2
g3
Ntp99
Rp100
(dp101
g7
I16
sb(lp102
(S'14:39'
p103
Ntp104
asg1
(g2
g3
Ntp105
Rp106
(dp107
g7
I17
sb(lp108
(S'13:44'
p109
S'14:02'
p110
tp111
a(S'14:39'
p112
Ntp113
asg1
(g2
g3
Ntp114
Rp115
(dp116
g7
I18
sb(lp117
(S'14:02'
p118
S'14:39'
p119
tp120
asg1
(g2
g3
Ntp121
Rp122
(dp123
g7
I19
sb(lp124
(S'14:05'
p125
S'14:39'
p126
tp127
asg1
(g2
g3
Ntp128
Rp129
(dp130
g7
I20
sb(lp131
s.