(dp0
ccopy_reg
_reconstructor
p1
(cmachine
ClosedMachine
p2
c__builtin__
object
p3
Ntp4
Rp5
(dp6
S'machine_id'
p7
I1
sb(lp8
(S'14:44'
p9
S'15:30'
p10
tp11
a(S'18:53'
p12
S'19:52'
p13
tp14
asg1
(g2
g3
Ntp15
Rp16
(dp17
g7
I2
sb(lp18
(S'14:22'
p19
S'14:53'
p20
tp21
a(S'18:54'
p22
S'19:31'
p23
tp24
asg1
(g2
g3
Ntp25
Rp26
(dp27
g7
I3
sb(lp28
(S'08:19'
p29
S'09:11'
p30
tp31
a(S'11:43'
p32
S'12:10'
p33
tp34
a(S'14:22'
p35
S'14:59'
p36
tp37
a(S'16:12'
p38
S'16:45'
p39
tp40
a(S'18:05'
p41
S'18:35'
p42
tp43
asg1
(g2
g3
Ntp44
Rp45
(dp46
g7
I4
sb(lp47
(S'08:19'
p48
S'08:49'
p49
tp50
a(S'11:43'
p51
S'12:12'
p52
tp53
a(S'13:30'
p54
S'14:00'
p55
tp56
a(S'15:25'
p57
S'16:04'
p58
tp59
a(S'16:41'
p60
S'17:20'
p61
tp62
a(S'18:05'
p63
S'18:52'
p64
tp65
asg1
(g2
g3
Ntp66
Rp67
(dp68
g7
I5
sb(lp69
(S'08:19'
p70
S'09:10'
p71
tp72
a(S'10:50'
p73
S'11:27'
p74
tp75
a(S'11:35'
p76
S'12:14'
p77
tp78
a(S'13:30'
p79
S'14:16'
p80
tp81
a(S'15:26'
p82
S'16:02'
p83
tp84
a(S'16:41'
p85
S'17:19'
p86
tp87
a(S'18:05'
p88
S'18:44'
p89
tp90
asg1
(g2
g3
Ntp91
Rp92
(dp93
g7
I6
sb(lp94
(S'10:50'
p95
S'11:23'
p96
tp97
a(S'13:22'
p98
S'14:00'
p99
tp100
a(S'14:32'
p101
S'15:10'
p102
tp103
a(S'16:32'
p104
S'17:10'
p105
tp106
asg1
(g2
g3
Ntp107
Rp108
(dp109
g7
I7
sb(lp110
(S'10:50'
p111
S'11:23'
p112
tp113
a(S'13:20'
p114
S'13:58'
p115
tp116
a(S'14:34'
p117
S'15:14'
p118
tp119
a(S'16:31'
p120
S'17:16'
p121
tp122
a(S'18:03'
p123
S'18:41'
p124
tp125
a(S'19:00'
p126
S'19:41'
p127
tp128
asg1
(g2
g3
Ntp129
Rp130
(dp131
g7
I8
sb(lp132
(S'07:26'
p133
S'08:14'
p134
tp135
a(S'08:35'
p136
S'09:22'
p137
tp138
a(S'10:01'
p139
S'10:58'
p140
tp141
a(S'14:13'
p142
S'14:59'
p143
tp144
a(S'15:16'
p145
S'15:48'
p146
tp147
a(S'18:16'
p148
S'18:53'
p149
tp150
asg1
(g2
g3
Ntp151
Rp152
(dp153
g7
I9
sb(lp154
(S'07:27'
p155
S'08:13'
p156
tp157
a(S'08:35'
p158
S'09:20'
p159
tp160
a(S'11:21'
p161
S'11:58'
p162
tp163
a(S'14:37'
p164
S'15:17'
p165
tp166
a(S'18:54'
p167
S'19:34'
p168
tp169
asg1
(g2
g3
Ntp170
Rp171
(dp172
g7
I10
sb(lp173
(S'14:43'
p174
S'15:21'
p175
tp176
a(S'18:31'
p177
S'19:18'
p178
tp179
asg1
(g2
g3
Ntp180
Rp181
(dp182
g7
I11
sb(lp183
(S'14:42'
p184
S'15:12'
p185
tp186
a(S'18:51'
p187
S'19:48'
p188
tp189
asg1
(g2
g3
Ntp190
Rp191
(dp192
g7
I12
sb(lp193
(S'14:43'
p194
S'15:20'
p195
tp196
asg1
(g2
g3
Ntp197
Rp198
(dp199
g7
I13
sb(lp200
(S'18:49'
p201
S'19:43'
p202
tp203
asg1
(g2
g3
Ntp204
Rp205
(dp206
g7
I14
sb(lp207
(S'14:43'
p208
S'15:22'
p209
tp210
a(S'18:49'
p211
S'19:39'
p212
tp213
asg1
(g2
g3
Ntp214
Rp215
(dp216
g7
I15
sb(lp217
(S'13:42'
p218
S'14:19'
p219
tp220
a(S'14:39'
p221
S'15:10'
p222
tp223
a(S'16:04'
p224
S'16:51'
p225
tp226
asg1
(g2
g3
Ntp227
Rp228
(dp229
g7
I16
sb(lp230
(S'13:41'
p231
S'14:19'
p232
tp233
a(S'14:37'
p234
S'15:15'
p235
tp236
a(S'16:04'
p237
S'16:51'
p238
tp239
a(S'18:39'
p240
S'19:17'
p241
tp242
asg1
(g2
g3
Ntp243
Rp244
(dp245
g7
I17
sb(lp246
(S'08:15'
p247
S'08:54'
p248
tp249
a(S'11:04'
p250
S'11:53'
p251
tp252
a(S'13:41'
p253
S'14:19'
p254
tp255
a(S'14:36'
p256
S'15:20'
p257
tp258
a(S'15:26'
p259
S'16:03'
p260
tp261
a(S'17:50'
p262
S'18:27'
p263
tp264
asg1
(g2
g3
Ntp265
Rp266
(dp267
g7
I18
sb(lp268
(S'08:15'
p269
S'08:52'
p270
tp271
a(S'10:50'
p272
S'11:29'
p273
tp274
a(S'13:41'
p275
S'14:19'
p276
tp277
a(S'14:34'
p278
S'15:08'
p279
tp280
a(S'15:19'
p281
S'15:58'
p282
tp283
a(S'17:50'
p284
S'18:40'
p285
tp286
asg1
(cmachine
BrokenDownMachine
p287
g3
Ntp288
Rp289
(dp290
g7
I19
sb(lp291
S'Ute av drift'
p292
asg1
(g2
g3
Ntp293
Rp294
(dp295
g7
I20
sb(lp296
(S'11:18'
p297
S'11:58'
p298
tp299
a(S'13:09'
p300
S'14:00'
p301
tp302
a(S'18:35'
p303
S'19:34'
p304
tp305
as.