(dp0
ccopy_reg
_reconstructor
p1
(cmachine
ClosedMachine
p2
c__builtin__
object
p3
Ntp4
Rp5
(dp6
S'machine_id'
p7
I1
sb(lp8
(S'07:30'
p9
S'08:17'
p10
tp11
a(S'09:00'
p12
S'09:50'
p13
tp14
a(S'13:57'
p15
S'14:27'
p16
tp17
a(S'14:50'
p18
S'15:30'
p19
tp20
a(S'16:25'
p21
S'16:55'
p22
tp23
a(S'17:43'
p24
S'19:09'
p25
tp26
a(S'19:26'
p27
Ntp28
asg1
(g2
g3
Ntp29
Rp30
(dp31
g7
I2
sb(lp32
(S'07:24'
p33
S'08:12'
p34
tp35
a(S'09:00'
p36
S'09:42'
p37
tp38
a(S'13:57'
p39
S'14:33'
p40
tp41
a(S'14:50'
p42
S'15:29'
p43
tp44
a(S'16:25'
p45
S'17:04'
p46
tp47
a(S'17:43'
p48
S'18:55'
p49
tp50
a(S'19:26'
p51
Ntp52
asg1
(g2
g3
Ntp53
Rp54
(dp55
g7
I3
sb(lp56
(S'07:24'
p57
S'08:07'
p58
tp59
a(S'09:00'
p60
S'09:40'
p61
tp62
a(S'13:57'
p63
S'14:36'
p64
tp65
a(S'14:51'
p66
S'15:30'
p67
tp68
a(S'16:25'
p69
S'17:06'
p70
tp71
a(S'17:43'
p72
S'18:21'
p73
tp74
a(S'18:35'
p75
S'19:14'
p76
tp77
a(S'19:26'
p78
Ntp79
asg1
(g2
g3
Ntp80
Rp81
(dp82
g7
I4
sb(lp83
(S'07:16'
p84
S'08:01'
p85
tp86
a(S'08:44'
p87
S'09:21'
p88
tp89
a(S'09:57'
p90
S'10:27'
p91
tp92
a(S'13:57'
p93
S'14:35'
p94
tp95
a(S'17:17'
p96
S'18:19'
p97
tp98
a(S'18:33'
p99
S'19:10'
p100
tp101
a(S'19:15'
p102
S'19:52'
p103
tp104
asg1
(g2
g3
Ntp105
Rp106
(dp107
g7
I5
sb(lp108
(S'07:16'
p109
S'08:01'
p110
tp111
a(S'08:44'
p112
S'09:23'
p113
tp114
a(S'09:56'
p115
S'10:27'
p116
tp117
a(S'12:33'
p118
S'13:18'
p119
tp120
a(S'17:17'
p121
S'18:03'
p122
tp123
a(S'18:33'
p124
S'19:11'
p125
tp126
asg1
(g2
g3
Ntp127
Rp128
(dp129
g7
I6
sb(lp130
(S'07:28'
p131
S'08:15'
p132
tp133
a(S'08:45'
p134
S'09:23'
p135
tp136
a(S'18:25'
p137
S'19:03'
p138
tp139
a(S'19:43'
p140
Ntp141
asg1
(g2
g3
Ntp142
Rp143
(dp144
g7
I7
sb(lp145
(S'07:29'
p146
S'08:14'
p147
tp148
a(S'13:57'
p149
S'14:35'
p150
tp151
a(S'18:14'
p152
S'18:53'
p153
tp154
a(S'19:43'
p155
Ntp156
asg1
(g2
g3
Ntp157
Rp158
(dp159
g7
I8
sb(lp160
(S'08:01'
p161
S'08:57'
p162
tp163
a(S'09:36'
p164
S'10:49'
p165
tp166
a(S'13:58'
p167
S'14:40'
p168
tp169
a(S'17:26'
p170
S'18:04'
p171
tp172
a(S'18:32'
p173
S'19:02'
p174
tp175
a(S'19:54'
p176
Ntp177
asg1
(g2
g3
Ntp178
Rp179
(dp180
g7
I9
sb(lp181
(S'09:37'
p182
S'10:16'
p183
tp184
a(S'16:54'
p185
S'17:00'
p186
tp187
asg1
(g2
g3
Ntp188
Rp189
(dp190
g7
I10
sb(lp191
(S'18:30'
p192
S'19:09'
p193
tp194
asg1
(g2
g3
Ntp195
Rp196
(dp197
g7
I11
sb(lp198
(S'12:38'
p199
S'13:18'
p200
tp201
a(S'14:24'
p202
S'15:01'
p203
tp204
asg1
(g2
g3
Ntp205
Rp206
(dp207
g7
I12
sb(lp208
(S'14:00'
p209
S'14:40'
p210
tp211
a(S'17:28'
p212
S'18:14'
p213
tp214
asg1
(g2
g3
Ntp215
Rp216
(dp217
g7
I13
sb(lp218
(S'06:40'
p219
S'08:12'
p220
tp221
a(S'12:37'
p222
S'13:17'
p223
tp224
a(S'17:28'
p225
S'18:26'
p226
tp227
asg1
(g2
g3
Ntp228
Rp229
(dp230
g7
I14
sb(lp231
(S'06:41'
p232
S'07:48'
p233
tp234
a(S'07:58'
p235
S'08:39'
p236
tp237
a(S'12:37'
p238
S'13:16'
p239
tp240
a(S'14:30'
p241
S'15:09'
p242
tp243
a(S'17:28'
p244
S'18:16'
p245
tp246
a(S'18:32'
p247
S'19:02'
p248
tp249
asg1
(cmachine
BrokenDownMachine
p250
g3
Ntp251
Rp252
(dp253
g7
I15
sb(lp254
S'Ute av drift'
p255
asg1
(g2
g3
Ntp256
Rp257
(dp258
g7
I16
sb(lp259
(S'07:58'
p260
S'08:37'
p261
tp262
a(S'10:22'
p263
S'11:01'
p264
tp265
a(S'12:16'
p266
S'12:56'
p267
tp268
a(S'13:58'
p269
S'14:40'
p270
tp271
a(S'18:30'
p272
S'19:09'
p273
tp274
a(S'19:56'
p275
Ntp276
asg1
(g2
g3
Ntp277
Rp278
(dp279
g7
I17
sb(lp280
(S'07:58'
p281
S'08:42'
p282
tp283
a(S'10:19'
p284
S'11:11'
p285
tp286
a(S'12:17'
p287
S'12:56'
p288
tp289
a(S'13:58'
p290
S'15:02'
p291
tp292
a(S'18:28'
p293
S'19:06'
p294
tp295
a(S'19:56'
p296
Ntp297
asg1
(g2
g3
Ntp298
Rp299
(dp300
g7
I18
sb(lp301
(S'07:58'
p302
S'08:39'
p303
tp304
a(S'10:19'
p305
S'11:10'
p306
tp307
a(S'13:58'
p308
S'14:31'
p309
tp310
a(S'18:27'
p311
S'18:57'
p312
tp313
a(S'19:57'
p314
Ntp315
asg1
(g2
g3
Ntp316
Rp317
(dp318
g7
I19
sb(lp319
(S'08:18'
p320
S'09:08'
p321
tp322
a(S'18:07'
p323
S'18:53'
p324
tp325
asg1
(g2
g3
Ntp326
Rp327
(dp328
g7
I20
sb(lp329
(S'18:07'
p330
S'18:53'
p331
tp332
as.