(dp0
ccopy_reg
_reconstructor
p1
(cmachine
ClosedMachine
p2
c__builtin__
object
p3
Ntp4
Rp5
(dp6
S'machine_id'
p7
I1
sb(lp8
(S'19:13'
p9
S'19:35'
p10
tp11
asg1
(g2
g3
Ntp12
Rp13
(dp14
g7
I2
sb(lp15
(S'13:55'
p16
S'14:34'
p17
tp18
aS'Ute av drift'
p19
asg1
(g2
g3
Ntp20
Rp21
(dp22
g7
I3
sb(lp23
(S'11:23'
p24
S'12:21'
p25
tp26
a(S'13:55'
p27
S'14:34'
p28
tp29
a(S'15:39'
p30
S'16:19'
p31
tp32
a(S'17:21'
p33
S'18:00'
p34
tp35
a(S'18:27'
p36
S'19:05'
p37
tp38
asg1
(g2
g3
Ntp39
Rp40
(dp41
g7
I4
sb(lp42
(S'07:50'
p43
S'08:37'
p44
tp45
a(S'09:41'
p46
S'10:14'
p47
tp48
a(S'11:17'
p49
S'11:54'
p50
tp51
a(S'13:49'
p52
S'14:40'
p53
tp54
a(S'15:39'
p55
S'16:18'
p56
tp57
a(S'17:54'
p58
S'18:24'
p59
tp60
a(S'19:00'
p61
S'19:30'
p62
tp63
asg1
(g2
g3
Ntp64
Rp65
(dp66
g7
I5
sb(lp67
(S'07:50'
p68
S'08:27'
p69
tp70
a(S'11:17'
p71
S'11:56'
p72
tp73
a(S'13:55'
p74
S'14:34'
p75
tp76
a(S'15:37'
p77
S'16:14'
p78
tp79
a(S'17:55'
p80
S'18:34'
p81
tp82
a(S'19:00'
p83
S'19:38'
p84
tp85
a(S'19:57'
p86
Ntp87
asg1
(g2
g3
Ntp88
Rp89
(dp90
g7
I6
sb(lp91
(S'07:50'
p92
S'08:20'
p93
tp94
a(S'11:21'
p95
S'11:58'
p96
tp97
a(S'14:14'
p98
S'14:52'
p99
tp100
a(S'16:07'
p101
S'16:47'
p102
tp103
a(S'18:33'
p104
S'19:10'
p105
tp106
asg1
(g2
g3
Ntp107
Rp108
(dp109
g7
I7
sb(lp110
(S'07:50'
p111
S'08:29'
p112
tp113
a(S'11:25'
p114
S'12:11'
p115
tp116
a(S'13:00'
p117
S'13:39'
p118
tp119
a(S'14:02'
p120
S'14:40'
p121
tp122
a(S'14:54'
p123
S'15:33'
p124
tp125
asg1
(g2
g3
Ntp126
Rp127
(dp128
g7
I8
sb(lp129
(S'08:14'
p130
S'08:51'
p131
tp132
a(S'10:00'
p133
S'10:33'
p134
tp135
a(S'11:24'
p136
S'12:11'
p137
tp138
a(S'13:53'
p139
S'14:29'
p140
tp141
a(S'14:48'
p142
S'15:34'
p143
tp144
a(S'16:07'
p145
S'16:45'
p146
tp147
a(S'17:59'
p148
S'18:37'
p149
tp150
a(S'19:02'
p151
S'19:41'
p152
tp153
asg1
(g2
g3
Ntp154
Rp155
(dp156
g7
I9
sb(lp157
(S'10:45'
p158
S'11:23'
p159
tp160
a(S'14:20'
p161
S'14:58'
p162
tp163
a(S'16:07'
p164
S'16:37'
p165
tp166
a(S'17:59'
p167
S'18:36'
p168
tp169
a(S'19:28'
p170
Ntp171
asg1
(g2
g3
Ntp172
Rp173
(dp174
g7
I10
sb(lp175
(S'11:26'
p176
S'12:24'
p177
tp178
a(S'14:21'
p179
S'15:24'
p180
tp181
a(S'16:07'
p182
S'16:44'
p183
tp184
a(S'18:29'
p185
S'19:03'
p186
tp187
a(S'19:28'
p188
Ntp189
asg1
(g2
g3
Ntp190
Rp191
(dp192
g7
I11
sb(lp193
(S'14:21'
p194
S'14:51'
p195
tp196
a(S'16:29'
p197
S'17:16'
p198
tp199
a(S'18:27'
p200
S'18:57'
p201
tp202
asg1
(g2
g3
Ntp203
Rp204
(dp205
g7
I12
sb(lp206
(S'14:21'
p207
S'14:58'
p208
tp209
a(S'16:29'
p210
S'17:16'
p211
tp212
a(S'18:27'
p213
S'18:58'
p214
tp215
asg1
(g2
g3
Ntp216
Rp217
(dp218
g7
I13
sb(lp219
(S'11:35'
p220
S'12:22'
p221
tp222
a(S'16:29'
p223
S'17:07'
p224
tp225
a(S'18:15'
p226
S'18:55'
p227
tp228
asg1
(g2
g3
Ntp229
Rp230
(dp231
g7
I14
sb(lp232
(S'11:35'
p233
S'11:54'
p234
tp235
a(S'12:30'
p236
S'13:06'
p237
tp238
a(S'14:41'
p239
S'15:32'
p240
tp241
a(S'18:16'
p242
S'19:01'
p243
tp244
asg1
(g2
g3
Ntp245
Rp246
(dp247
g7
I15
sb(lp248
(S'11:35'
p249
S'12:32'
p250
tp251
a(S'14:31'
p252
S'15:33'
p253
tp254
a(S'16:25'
p255
S'17:06'
p256
tp257
asg1
(g2
g3
Ntp258
Rp259
(dp260
g7
I16
sb(lp261
(S'10:01'
p262
S'10:38'
p263
tp264
a(S'11:10'
p265
S'11:40'
p266
tp267
a(S'12:02'
p268
S'12:42'
p269
tp270
a(S'14:16'
p271
S'14:53'
p272
tp273
a(S'16:25'
p274
S'17:12'
p275
tp276
asg1
(g2
g3
Ntp277
Rp278
(dp279
g7
I17
sb(lp280
(S'09:06'
p281
S'09:46'
p282
tp283
a(S'11:10'
p284
S'11:49'
p285
tp286
a(S'12:02'
p287
S'12:40'
p288
tp289
a(S'14:14'
p290
S'14:55'
p291
tp292
a(S'16:11'
p293
S'16:48'
p294
tp295
a(S'18:16'
p296
S'19:02'
p297
tp298
asg1
(g2
g3
Ntp299
Rp300
(dp301
g7
I18
sb(lp302
(S'08:13'
p303
S'08:51'
p304
tp305
a(S'09:58'
p306
S'10:38'
p307
tp308
a(S'11:10'
p309
S'11:43'
p310
tp311
a(S'13:18'
p312
S'13:58'
p313
tp314
a(S'14:29'
p315
S'14:35'
p316
tp317
a(S'14:56'
p318
S'15:36'
p319
tp320
a(S'19:28'
p321
Ntp322
asg1
(cmachine
BrokenDownMachine
p323
g3
Ntp324
Rp325
(dp326
g7
I19
sb(lp327
S'Ute av drift'
p328
asg1
(g2
g3
Ntp329
Rp330
(dp331
g7
I20
sb(lp332
(S'08:15'
p333
S'08:52'
p334
tp335
a(S'09:57'
p336
S'10:27'
p337
tp338
a(S'13:37'
p339
S'14:26'
p340
tp341
a(S'14:43'
p342
S'15:29'
p343
tp344
a(S'18:00'
p345
S'18:01'
p346
tp347
a(S'18:02'
p348
S'18:49'
p349
tp350
as.