(dp0
ccopy_reg
_reconstructor
p1
(cmachine
ClosedMachine
p2
c__builtin__
object
p3
Ntp4
Rp5
(dp6
S'machine_id'
p7
I1
sb(lp8
(S'06:10'
p9
S'06:48'
p10
tp11
a(S'16:10'
p12
S'16:44'
p13
tp14
a(S'17:48'
p15
S'18:27'
p16
tp17
a(S'18:51'
p18
S'19:28'
p19
tp20
asg1
(g2
g3
Ntp21
Rp22
(dp23
g7
I2
sb(lp24
(S'06:10'
p25
S'07:02'
p26
tp27
a(S'11:59'
p28
S'12:47'
p29
tp30
a(S'16:10'
p31
S'16:49'
p32
tp33
a(S'17:48'
p34
S'18:27'
p35
tp36
a(S'18:51'
p37
S'19:28'
p38
tp39
asg1
(g2
g3
Ntp40
Rp41
(dp42
g7
I3
sb(lp43
(S'06:10'
p44
S'06:59'
p45
tp46
a(S'13:27'
p47
S'14:05'
p48
tp49
a(S'16:10'
p50
S'16:49'
p51
tp52
a(S'17:48'
p53
S'18:28'
p54
tp55
a(S'18:51'
p56
S'19:30'
p57
tp58
asg1
(g2
g3
Ntp59
Rp60
(dp61
g7
I4
sb(lp62
(S'13:28'
p63
S'14:01'
p64
tp65
a(S'17:01'
p66
S'17:48'
p67
tp68
a(S'17:54'
p69
S'18:32'
p70
tp71
a(S'19:41'
p72
Ntp73
asg1
(g2
g3
Ntp74
Rp75
(dp76
g7
I5
sb(lp77
(S'13:28'
p78
S'14:06'
p79
tp80
a(S'15:28'
p81
S'16:07'
p82
tp83
a(S'17:17'
p84
S'18:13'
p85
tp86
asg1
(g2
g3
Ntp87
Rp88
(dp89
g7
I6
sb(lp90
(S'14:01'
p91
S'14:40'
p92
tp93
a(S'17:18'
p94
S'17:55'
p95
tp96
a(S'18:20'
p97
S'18:59'
p98
tp99
a(S'19:49'
p100
Ntp101
asg1
(g2
g3
Ntp102
Rp103
(dp104
g7
I7
sb(lp105
(S'13:13'
p106
S'14:06'
p107
tp108
a(S'14:59'
p109
S'15:46'
p110
tp111
a(S'17:20'
p112
S'18:06'
p113
tp114
a(S'19:52'
p115
Ntp116
asg1
(g2
g3
Ntp117
Rp118
(dp119
g7
I8
sb(lp120
(S'13:53'
p121
S'14:48'
p122
tp123
a(S'15:46'
p124
S'16:25'
p125
tp126
a(S'16:36'
p127
S'17:15'
p128
tp129
a(S'18:10'
p130
S'18:57'
p131
tp132
a(S'19:52'
p133
Ntp134
asg1
(g2
g3
Ntp135
Rp136
(dp137
g7
I9
sb(lp138
(S'06:30'
p139
S'07:08'
p140
tp141
a(S'13:15'
p142
S'14:05'
p143
tp144
a(S'15:47'
p145
S'16:24'
p146
tp147
a(S'16:36'
p148
S'17:13'
p149
tp150
a(S'18:11'
p151
S'18:56'
p152
tp153
asg1
(g2
g3
Ntp154
Rp155
(dp156
g7
I10
sb(lp157
(S'06:18'
p158
S'06:55'
p159
tp160
a(S'17:20'
p161
S'18:05'
p162
tp163
asg1
(g2
g3
Ntp164
Rp165
(dp166
g7
I11
sb(lp167
(S'06:18'
p168
S'07:09'
p169
tp170
a(S'13:44'
p171
S'14:26'
p172
tp173
a(S'17:47'
p174
S'18:21'
p175
tp176
asg1
(g2
g3
Ntp177
Rp178
(dp179
g7
I12
sb(lp180
(S'06:18'
p181
S'07:09'
p182
tp183
a(S'14:02'
p184
S'14:41'
p185
tp186
a(S'17:20'
p187
S'18:07'
p188
tp189
asg1
(g2
g3
Ntp190
Rp191
(dp192
g7
I13
sb(lp193
(S'09:58'
p194
S'10:37'
p195
tp196
a(S'13:26'
p197
S'13:56'
p198
tp199
a(S'14:45'
p200
S'15:15'
p201
tp202
a(S'17:47'
p203
S'18:27'
p204
tp205
asg1
(g2
g3
Ntp206
Rp207
(dp208
g7
I14
sb(lp209
(S'09:59'
p210
S'10:32'
p211
tp212
a(S'13:26'
p213
S'14:17'
p214
tp215
a(S'14:45'
p216
S'15:27'
p217
tp218
a(S'17:34'
p219
S'18:28'
p220
tp221
asg1
(cmachine
BrokenDownMachine
p222
g3
Ntp223
Rp224
(dp225
g7
I15
sb(lp226
S'Ute av drift'
p227
asg1
(g2
g3
Ntp228
Rp229
(dp230
g7
I16
sb(lp231
(S'10:01'
p232
S'10:39'
p233
tp234
a(S'13:15'
p235
S'13:49'
p236
tp237
a(S'15:18'
p238
S'16:03'
p239
tp240
a(S'17:49'
p241
S'18:44'
p242
tp243
asg1
(g2
g3
Ntp244
Rp245
(dp246
g7
I17
sb(lp247
(S'10:01'
p248
S'10:38'
p249
tp250
a(S'13:15'
p251
S'13:49'
p252
tp253
a(S'15:18'
p254
S'16:14'
p255
tp256
a(S'16:56'
p257
S'17:36'
p258
tp259
a(S'18:22'
p260
S'19:00'
p261
tp262
asg1
(g2
g3
Ntp263
Rp264
(dp265
g7
I18
sb(lp266
(S'13:15'
p267
S'14:03'
p268
tp269
a(S'15:18'
p270
S'16:03'
p271
tp272
a(S'16:56'
p273
S'17:35'
p274
tp275
a(S'17:50'
p276
S'18:27'
p277
tp278
asg1
(g2
g3
Ntp279
Rp280
(dp281
g7
I19
sb(lp282
(S'13:53'
p283
S'14:38'
p284
tp285
a(S'15:19'
p286
S'15:57'
p287
tp288
a(S'16:56'
p289
S'17:35'
p290
tp291
a(S'18:24'
p292
S'19:11'
p293
tp294
asg1
(g2
g3
Ntp295
Rp296
(dp297
g7
I20
sb(lp298
(S'14:02'
p299
S'14:42'
p300
tp301
a(S'16:56'
p302
S'17:35'
p303
tp304
a(S'18:24'
p305
S'18:57'
p306
tp307
as.