(dp0
ccopy_reg
_reconstructor
p1
(cmachine
ClosedMachine
p2
c__builtin__
object
p3
Ntp4
Rp5
(dp6
S'machine_id'
p7
I1
sb(lp8
(S'13:18'
p9
S'13:56'
p10
tp11
a(S'16:33'
p12
S'17:12'
p13
tp14
a(S'18:27'
p15
S'19:04'
p16
tp17
asg1
(cmachine
BrokenDownMachine
p18
g3
Ntp19
Rp20
(dp21
g7
I2
sb(lp22
S'Ute av drift'
p23
asg1
(g2
g3
Ntp24
Rp25
(dp26
g7
I3
sb(lp27
(S'09:09'
p28
S'10:00'
p29
tp30
a(S'11:38'
p31
S'12:18'
p32
tp33
a(S'12:47'
p34
S'13:26'
p35
tp36
a(S'16:07'
p37
S'16:44'
p38
tp39
a(S'17:56'
p40
S'18:36'
p41
tp42
a(S'19:29'
p43
Ntp44
asg1
(g2
g3
Ntp45
Rp46
(dp47
g7
I4
sb(lp48
(S'08:44'
p49
S'09:14'
p50
tp51
a(S'10:50'
p52
S'11:39'
p53
tp54
a(S'18:29'
p55
S'18:59'
p56
tp57
asg1
(g2
g3
Ntp58
Rp59
(dp60
g7
I5
sb(lp61
(S'07:10'
p62
S'07:40'
p63
tp64
a(S'13:59'
p65
S'14:38'
p66
tp67
a(S'15:57'
p68
S'16:28'
p69
tp70
a(S'17:56'
p71
S'18:35'
p72
tp73
a(S'19:55'
p74
Ntp75
asg1
(g2
g3
Ntp76
Rp77
(dp78
g7
I6
sb(lp79
(S'07:09'
p80
S'07:46'
p81
tp82
a(S'14:19'
p83
S'14:56'
p84
tp85
a(S'17:58'
p86
S'18:35'
p87
tp88
a(S'19:57'
p89
Ntp90
asg1
(g2
g3
Ntp91
Rp92
(dp93
g7
I7
sb(lp94
(S'07:08'
p95
S'07:38'
p96
tp97
a(S'09:12'
p98
S'09:50'
p99
tp100
a(S'12:21'
p101
S'13:09'
p102
tp103
a(S'14:19'
p104
S'15:07'
p105
tp106
a(S'19:11'
p107
S'19:59'
p108
tp109
asg1
(g2
g3
Ntp110
Rp111
(dp112
g7
I8
sb(lp113
(S'14:21'
p114
S'15:00'
p115
tp116
a(S'17:54'
p117
S'18:28'
p118
tp119
asg1
(g2
g3
Ntp120
Rp121
(dp122
g7
I9
sb(lp123
(S'07:05'
p124
S'07:45'
p125
tp126
a(S'08:54'
p127
S'09:32'
p128
tp129
a(S'10:25'
p130
S'11:37'
p131
tp132
a(S'14:21'
p133
S'15:01'
p134
tp135
a(S'17:54'
p136
S'18:28'
p137
tp138
asg1
(g2
g3
Ntp139
Rp140
(dp141
g7
I10
sb(lp142
(S'07:05'
p143
S'07:43'
p144
tp145
a(S'08:54'
p146
S'09:46'
p147
tp148
a(S'10:25'
p149
S'11:04'
p150
tp151
a(S'14:21'
p152
S'15:01'
p153
tp154
a(S'17:54'
p155
S'18:42'
p156
tp157
asg1
(g2
g3
Ntp158
Rp159
(dp160
g7
I11
sb(lp161
(S'07:05'
p162
S'07:57'
p163
tp164
a(S'08:54'
p165
S'09:31'
p166
tp167
a(S'13:18'
p168
S'13:55'
p169
tp170
a(S'14:21'
p171
S'15:07'
p172
tp173
a(S'16:36'
p174
S'17:09'
p175
tp176
asg1
(g2
g3
Ntp177
Rp178
(dp179
g7
I12
sb(lp180
(S'08:54'
p181
S'09:24'
p182
tp183
a(S'11:07'
p184
S'11:59'
p185
tp186
a(S'13:18'
p187
S'13:56'
p188
tp189
a(S'16:36'
p190
S'17:28'
p191
tp192
asg1
(g2
g3
Ntp193
Rp194
(dp195
g7
I13
sb(lp196
(S'11:08'
p197
S'11:59'
p198
tp199
a(S'12:26'
p200
S'12:59'
p201
tp202
a(S'13:56'
p203
S'14:34'
p204
tp205
asg1
(g2
g3
Ntp206
Rp207
(dp208
g7
I14
sb(lp209
(S'11:08'
p210
S'12:03'
p211
tp212
a(S'13:57'
p213
S'14:35'
p214
tp215
a(S'16:53'
p216
S'17:32'
p217
tp218
asg1
(g2
g3
Ntp219
Rp220
(dp221
g7
I15
sb(lp222
(S'07:10'
p223
S'07:47'
p224
tp225
a(S'13:57'
p226
S'14:37'
p227
tp228
a(S'14:41'
p229
S'15:19'
p230
tp231
a(S'16:53'
p232
S'17:31'
p233
tp234
asg1
(g2
g3
Ntp235
Rp236
(dp237
g7
I16
sb(lp238
(S'07:09'
p239
S'07:46'
p240
tp241
a(S'14:27'
p242
S'15:05'
p243
tp244
a(S'16:53'
p245
S'17:32'
p246
tp247
asg1
(g2
g3
Ntp248
Rp249
(dp250
g7
I17
sb(lp251
(S'07:09'
p252
S'07:47'
p253
tp254
asg1
(g2
g3
Ntp255
Rp256
(dp257
g7
I18
sb(lp258
(S'07:08'
p259
S'07:45'
p260
tp261
a(S'14:26'
p262
S'15:05'
p263
tp264
a(S'17:27'
p265
S'17:33'
p266
tp267
asg1
(g18
g3
Ntp268
Rp269
(dp270
g7
I19
sb(lp271
g23
asg1
(g2
g3
Ntp272
Rp273
(dp274
g7
I20
sb(lp275
(S'07:04'
p276
S'07:37'
p277
tp278
a(S'17:25'
p279
S'17:56'
p280
tp281
as.