(dp0
ccopy_reg
_reconstructor
p1
(cmachine
ClosedMachine
p2
c__builtin__
object
p3
Ntp4
Rp5
(dp6
S'machine_id'
p7
I1
sb(lp8
(S'08:53'
p9
S'09:30'
p10
tp11
a(S'14:08'
p12
S'14:45'
p13
tp14
a(S'17:32'
p15
S'18:12'
p16
tp17
asg1
(cmachine
BrokenDownMachine
p18
g3
Ntp19
Rp20
(dp21
g7
I2
sb(lp22
S'Ute av drift'
p23
asg1
(g2
g3
Ntp24
Rp25
(dp26
g7
I3
sb(lp27
(S'10:16'
p28
S'10:54'
p29
tp30
a(S'12:50'
p31
S'13:20'
p32
tp33
a(S'13:39'
p34
S'14:08'
p35
tp36
a(S'16:14'
p37
S'16:53'
p38
tp39
a(S'17:33'
p40
S'18:12'
p41
tp42
a(S'18:56'
p43
S'19:48'
p44
tp45
asg1
(g2
g3
Ntp46
Rp47
(dp48
g7
I4
sb(lp49
(S'08:54'
p50
S'09:37'
p51
tp52
a(S'16:14'
p53
S'17:01'
p54
tp55
asg1
(g2
g3
Ntp56
Rp57
(dp58
g7
I5
sb(lp59
(S'09:46'
p60
S'10:25'
p61
tp62
a(S'11:00'
p63
S'11:46'
p64
tp65
a(S'12:12'
p66
S'13:09'
p67
tp68
a(S'13:27'
p69
S'14:05'
p70
tp71
a(S'14:57'
p72
S'15:45'
p73
tp74
asg1
(g2
g3
Ntp75
Rp76
(dp77
g7
I6
sb(lp78
(S'11:03'
p79
S'11:54'
p80
tp81
a(S'12:23'
p82
S'13:03'
p83
tp84
a(S'15:19'
p85
S'15:56'
p86
tp87
a(S'17:52'
p88
S'18:30'
p89
tp90
asg1
(g2
g3
Ntp91
Rp92
(dp93
g7
I7
sb(lp94
(S'09:26'
p95
S'10:04'
p96
tp97
a(S'12:23'
p98
S'13:04'
p99
tp100
a(S'14:06'
p101
S'14:53'
p102
tp103
a(S'17:48'
p104
S'18:38'
p105
tp106
asg1
(g2
g3
Ntp107
Rp108
(dp109
g7
I8
sb(lp110
(S'09:52'
p111
S'11:01'
p112
tp113
a(S'12:24'
p114
S'13:12'
p115
tp116
a(S'13:33'
p117
S'14:06'
p118
tp119
a(S'15:03'
p120
S'15:42'
p121
tp122
asg1
(g2
g3
Ntp123
Rp124
(dp125
g7
I9
sb(lp126
(S'07:32'
p127
S'08:18'
p128
tp129
a(S'09:53'
p130
S'10:40'
p131
tp132
a(S'11:43'
p133
S'12:22'
p134
tp135
a(S'12:41'
p136
S'13:20'
p137
tp138
a(S'13:33'
p139
S'14:12'
p140
tp141
a(S'15:03'
p142
S'15:42'
p143
tp144
asg1
(g2
g3
Ntp145
Rp146
(dp147
g7
I10
sb(lp148
(S'09:54'
p149
S'10:32'
p150
tp151
a(S'11:47'
p152
S'12:26'
p153
tp154
a(S'12:49'
p155
S'13:29'
p156
tp157
a(S'14:11'
p158
S'14:50'
p159
tp160
a(S'15:58'
p161
S'16:29'
p162
tp163
asg1
(g2
g3
Ntp164
Rp165
(dp166
g7
I11
sb(lp167
(S'08:56'
p168
S'09:51'
p169
tp170
a(S'10:43'
p171
S'11:20'
p172
tp173
a(S'11:48'
p174
S'12:25'
p175
tp176
a(S'12:49'
p177
S'13:27'
p178
tp179
a(S'14:11'
p180
S'14:50'
p181
tp182
asg1
(g2
g3
Ntp183
Rp184
(dp185
g7
I12
sb(lp186
(S'11:02'
p187
S'11:49'
p188
tp189
a(S'12:24'
p190
S'13:04'
p191
tp192
a(S'14:31'
p193
S'15:18'
p194
tp195
asg1
(g2
g3
Ntp196
Rp197
(dp198
g7
I13
sb(lp199
(S'08:56'
p200
S'09:43'
p201
tp202
a(S'11:05'
p203
S'11:10'
p204
tp205
a(S'11:58'
p206
S'12:36'
p207
tp208
a(S'12:51'
p209
S'13:30'
p210
tp211
a(S'13:37'
p212
S'14:14'
p213
tp214
asg1
(g2
g3
Ntp215
Rp216
(dp217
g7
I14
sb(lp218
(S'08:56'
p219
S'09:42'
p220
tp221
a(S'11:05'
p222
S'11:10'
p223
tp224
a(S'11:58'
p225
S'12:35'
p226
tp227
a(S'12:52'
p228
S'13:43'
p229
tp230
a(S'14:31'
p231
S'15:19'
p232
tp233
asg1
(g2
g3
Ntp234
Rp235
(dp236
g7
I15
sb(lp237
(S'08:56'
p238
S'09:44'
p239
tp240
a(S'11:32'
p241
S'12:21'
p242
tp243
a(S'13:28'
p244
S'14:13'
p245
tp246
a(S'14:32'
p247
S'15:19'
p248
tp249
asg1
(g2
g3
Ntp250
Rp251
(dp252
g7
I16
sb(lp253
(S'10:57'
p254
S'11:36'
p255
tp256
a(S'11:52'
p257
S'12:22'
p258
tp259
a(S'12:50'
p260
S'13:29'
p261
tp262
a(S'15:58'
p263
S'16:46'
p264
tp265
asg1
(g2
g3
Ntp266
Rp267
(dp268
g7
I17
sb(lp269
(S'10:57'
p270
S'11:35'
p271
tp272
a(S'12:25'
p273
S'13:04'
p274
tp275
a(S'13:46'
p276
S'14:25'
p277
tp278
a(S'15:58'
p279
S'16:37'
p280
tp281
asg1
(g2
g3
Ntp282
Rp283
(dp284
g7
I18
sb(lp285
(S'07:32'
p286
S'08:25'
p287
tp288
a(S'09:27'
p289
S'10:06'
p290
tp291
a(S'11:41'
p292
S'12:19'
p293
tp294
a(S'12:25'
p295
S'13:03'
p296
tp297
a(S'13:46'
p298
S'14:32'
p299
tp300
a(S'15:58'
p301
S'16:47'
p302
tp303
asg1
(g18
g3
Ntp304
Rp305
(dp306
g7
I19
sb(lp307
g23
asg1
(g2
g3
Ntp308
Rp309
(dp310
g7
I20
sb(lp311
(S'09:25'
p312
S'10:02'
p313
tp314
a(S'12:38'
p315
S'13:18'
p316
tp317
a(S'14:59'
p318
S'15:45'
p319
tp320
as.