(dp0
ccopy_reg
_reconstructor
p1
(cmachine
ClosedMachine
p2
c__builtin__
object
p3
Ntp4
Rp5
(dp6
S'machine_id'
p7
I1
sb(lp8
(S'10:41'
p9
S'11:21'
p10
tp11
a(S'13:04'
p12
S'13:44'
p13
tp14
a(S'14:39'
p15
S'15:22'
p16
tp17
asg1
(g2
g3
Ntp18
Rp19
(dp20
g7
I2
sb(lp21
(S'10:41'
p22
S'11:20'
p23
tp24
a(S'13:04'
p25
S'13:43'
p26
tp27
a(S'14:39'
p28
S'15:18'
p29
tp30
asg1
(g2
g3
Ntp31
Rp32
(dp33
g7
I3
sb(lp34
(S'08:26'
p35
S'09:11'
p36
tp37
a(S'10:38'
p38
S'11:16'
p39
tp40
a(S'16:14'
p41
S'16:51'
p42
tp43
a(S'19:48'
p44
Ntp45
asg1
(g2
g3
Ntp46
Rp47
(dp48
g7
I4
sb(lp49
(S'08:19'
p50
S'08:56'
p51
tp52
a(S'10:38'
p53
S'11:17'
p54
tp55
a(S'14:25'
p56
S'15:13'
p57
tp58
a(S'16:14'
p59
S'16:47'
p60
tp61
a(S'17:57'
p62
S'18:27'
p63
tp64
a(S'19:48'
p65
Ntp66
asg1
(g2
g3
Ntp67
Rp68
(dp69
g7
I5
sb(lp70
(S'10:37'
p71
S'11:14'
p72
tp73
a(S'14:26'
p74
S'15:04'
p75
tp76
a(S'16:14'
p77
S'16:53'
p78
tp79
a(S'17:57'
p80
S'18:34'
p81
tp82
a(S'19:48'
p83
Ntp84
asg1
(g2
g3
Ntp85
Rp86
(dp87
g7
I6
sb(lp88
(S'09:44'
p89
S'10:21'
p90
tp91
a(S'17:25'
p92
S'18:03'
p93
tp94
asg1
(g2
g3
Ntp95
Rp96
(dp97
g7
I7
sb(lp98
(S'16:22'
p99
S'17:10'
p100
tp101
a(S'17:26'
p102
S'17:32'
p103
tp104
a(S'19:40'
p105
Ntp106
asg1
(g2
g3
Ntp107
Rp108
(dp109
g7
I8
sb(lp110
(S'16:59'
p111
S'17:32'
p112
tp113
asg1
(g2
g3
Ntp114
Rp115
(dp116
g7
I9
sb(lp117
(S'09:45'
p118
S'10:21'
p119
tp120
a(S'11:43'
p121
S'12:20'
p122
tp123
a(S'13:09'
p124
S'13:46'
p125
tp126
a(S'15:12'
p127
S'15:50'
p128
tp129
a(S'16:58'
p130
S'17:32'
p131
tp132
a(S'18:12'
p133
S'18:50'
p134
tp135
asg1
(g2
g3
Ntp136
Rp137
(dp138
g7
I10
sb(lp139
(S'09:45'
p140
S'10:24'
p141
tp142
a(S'13:09'
p143
S'13:47'
p144
tp145
a(S'14:47'
p146
S'15:24'
p147
tp148
asg1
(g2
g3
Ntp149
Rp150
(dp151
g7
I11
sb(lp152
(S'07:44'
p153
S'08:22'
p154
tp155
a(S'08:51'
p156
S'09:31'
p157
tp158
a(S'11:06'
p159
S'11:49'
p160
tp161
a(S'13:09'
p162
S'13:48'
p163
tp164
a(S'14:47'
p165
S'15:21'
p166
tp167
asg1
(g2
g3
Ntp168
Rp169
(dp170
g7
I12
sb(lp171
(S'07:42'
p172
S'08:22'
p173
tp174
a(S'11:07'
p175
S'11:45'
p176
tp177
a(S'13:09'
p178
S'13:48'
p179
tp180
a(S'15:14'
p181
S'15:54'
p182
tp183
a(S'16:35'
p184
S'17:12'
p185
tp186
a(S'19:12'
p187
S'19:51'
p188
tp189
asg1
(g2
g3
Ntp190
Rp191
(dp192
g7
I13
sb(lp193
(S'08:51'
p194
S'09:29'
p195
tp196
a(S'11:07'
p197
S'11:45'
p198
tp199
asg1
(g2
g3
Ntp200
Rp201
(dp202
g7
I14
sb(lp203
(S'08:52'
p204
S'09:31'
p205
tp206
a(S'11:07'
p207
S'11:31'
p208
tp209
a(S'11:57'
p210
S'12:21'
p211
tp212
a(S'13:54'
p213
S'14:45'
p214
tp215
asg1
(cmachine
BrokenDownMachine
p216
g3
Ntp217
Rp218
(dp219
g7
I15
sb(lp220
S'Ute av drift'
p221
asg1
(g2
g3
Ntp222
Rp223
(dp224
g7
I16
sb(lp225
(S'08:52'
p226
S'09:29'
p227
tp228
a(S'10:42'
p229
S'11:21'
p230
tp231
asg1
(g2
g3
Ntp232
Rp233
(dp234
g7
I17
sb(lp235
(S'10:42'
p236
S'11:21'
p237
tp238
asg1
(g2
g3
Ntp239
Rp240
(dp241
g7
I18
sb(lp242
(S'08:20'
p243
S'08:59'
p244
tp245
a(S'11:48'
p246
S'12:27'
p247
tp248
a(S'13:54'
p249
S'14:31'
p250
tp251
a(S'18:59'
p252
S'19:29'
p253
tp254
asg1
(g2
g3
Ntp255
Rp256
(dp257
g7
I19
sb(lp258
(S'10:38'
p259
S'11:17'
p260
tp261
a(S'11:50'
p262
S'12:27'
p263
tp264
a(S'13:54'
p265
S'14:45'
p266
tp267
a(S'17:13'
p268
S'17:51'
p269
tp270
a(S'18:57'
p271
S'19:34'
p272
tp273
asg1
(g2
g3
Ntp274
Rp275
(dp276
g7
I20
sb(lp277
(S'17:12'
p278
S'17:43'
p279
tp280
as.