(dp0
ccopy_reg
_reconstructor
p1
(cmachine
ClosedMachine
p2
c__builtin__
object
p3
Ntp4
Rp5
(dp6
S'machine_id'
p7
I1
sb(lp8
(S'08:03'
p9
S'08:08'
p10
tp11
a(S'09:07'
p12
S'09:45'
p13
tp14
a(S'14:32'
p15
S'15:10'
p16
tp17
a(S'16:37'
p18
S'17:17'
p19
tp20
a(S'17:33'
p21
S'18:26'
p22
tp23
a(S'19:09'
p24
S'19:59'
p25
tp26
asg1
(g2
g3
Ntp27
Rp28
(dp29
g7
I2
sb(lp30
(S'06:21'
p31
S'06:55'
p32
tp33
a(S'09:24'
p34
S'10:01'
p35
tp36
a(S'13:15'
p37
S'14:02'
p38
tp39
a(S'14:50'
p40
S'15:20'
p41
tp42
a(S'16:37'
p43
S'17:15'
p44
tp45
a(S'19:36'
p46
Ntp47
asg1
(g2
g3
Ntp48
Rp49
(dp50
g7
I3
sb(lp51
(S'06:21'
p52
S'07:00'
p53
tp54
a(S'09:02'
p55
S'09:42'
p56
tp57
a(S'10:56'
p58
S'11:27'
p59
tp60
a(S'12:28'
p61
S'13:08'
p62
tp63
a(S'14:50'
p64
S'15:26'
p65
tp66
a(S'16:37'
p67
S'17:16'
p68
tp69
a(S'18:50'
p70
S'19:20'
p71
tp72
asg1
(g2
g3
Ntp73
Rp74
(dp75
g7
I4
sb(lp76
(S'06:21'
p77
S'06:59'
p78
tp79
a(S'12:28'
p80
S'13:07'
p81
tp82
a(S'13:59'
p83
S'14:38'
p84
tp85
a(S'15:06'
p86
S'15:43'
p87
tp88
a(S'18:01'
p89
S'18:38'
p90
tp91
a(S'19:06'
p92
S'19:58'
p93
tp94
asg1
(g2
g3
Ntp95
Rp96
(dp97
g7
I5
sb(lp98
(S'08:01'
p99
S'08:52'
p100
tp101
a(S'09:25'
p102
S'10:04'
p103
tp104
a(S'10:46'
p105
S'11:33'
p106
tp107
a(S'12:13'
p108
S'12:50'
p109
tp110
a(S'13:59'
p111
S'14:38'
p112
tp113
a(S'15:55'
p114
S'16:32'
p115
tp116
asg1
(g2
g3
Ntp117
Rp118
(dp119
g7
I6
sb(lp120
(S'08:30'
p121
S'09:09'
p122
tp123
a(S'11:24'
p124
S'12:04'
p125
tp126
a(S'15:00'
p127
S'15:47'
p128
tp129
a(S'16:44'
p130
S'17:29'
p131
tp132
a(S'18:05'
p133
S'18:42'
p134
tp135
asg1
(g2
g3
Ntp136
Rp137
(dp138
g7
I7
sb(lp139
(S'08:28'
p140
S'09:19'
p141
tp142
a(S'15:00'
p143
S'15:48'
p144
tp145
a(S'16:44'
p146
S'17:33'
p147
tp148
a(S'19:08'
p149
S'19:43'
p150
tp151
asg1
(g2
g3
Ntp152
Rp153
(dp154
g7
I8
sb(lp155
(S'12:30'
p156
S'13:06'
p157
tp158
a(S'14:53'
p159
S'15:24'
p160
tp161
a(S'16:44'
p162
S'17:22'
p163
tp164
asg1
(g2
g3
Ntp165
Rp166
(dp167
g7
I9
sb(lp168
(S'06:12'
p169
S'06:43'
p170
tp171
a(S'08:31'
p172
S'09:07'
p173
tp174
a(S'10:44'
p175
S'11:21'
p176
tp177
a(S'12:30'
p178
S'13:42'
p179
tp180
a(S'14:39'
p181
S'15:12'
p182
tp183
a(S'15:49'
p184
S'16:31'
p185
tp186
a(S'17:13'
p187
S'17:52'
p188
tp189
asg1
(g2
g3
Ntp190
Rp191
(dp192
g7
I10
sb(lp193
(S'06:11'
p194
S'07:02'
p195
tp196
a(S'08:32'
p197
S'09:02'
p198
tp199
a(S'10:44'
p200
S'11:23'
p201
tp202
a(S'12:26'
p203
S'13:05'
p204
tp205
a(S'14:39'
p206
S'15:12'
p207
tp208
a(S'19:37'
p209
Ntp210
asg1
(g2
g3
Ntp211
Rp212
(dp213
g7
I11
sb(lp214
(S'06:11'
p215
S'06:48'
p216
tp217
a(S'12:26'
p218
S'13:12'
p219
tp220
a(S'14:13'
p221
S'15:12'
p222
tp223
asg1
(g2
g3
Ntp224
Rp225
(dp226
g7
I12
sb(lp227
(S'06:11'
p228
S'07:02'
p229
tp230
a(S'11:50'
p231
S'11:55'
p232
tp233
a(S'13:08'
p234
S'13:47'
p235
tp236
a(S'15:03'
p237
S'15:50'
p238
tp239
a(S'18:04'
p240
S'18:56'
p241
tp242
asg1
(g2
g3
Ntp243
Rp244
(dp245
g7
I13
sb(lp246
(S'11:50'
p247
S'11:55'
p248
tp249
a(S'13:08'
p250
S'13:47'
p251
tp252
a(S'15:01'
p253
S'15:48'
p254
tp255
a(S'17:17'
p256
S'17:55'
p257
tp258
asg1
(g2
g3
Ntp259
Rp260
(dp261
g7
I14
sb(lp262
(S'08:40'
p263
S'09:17'
p264
tp265
a(S'09:43'
p266
S'10:22'
p267
tp268
a(S'11:50'
p269
S'11:55'
p270
tp271
a(S'13:09'
p272
S'13:48'
p273
tp274
a(S'15:01'
p275
S'15:38'
p276
tp277
a(S'17:17'
p278
S'18:04'
p279
tp280
a(S'19:41'
p281
Ntp282
asg1
(cmachine
BrokenDownMachine
p283
g3
Ntp284
Rp285
(dp286
g7
I15
sb(lp287
S'Ute av drift'
p288
asg1
(g2
g3
Ntp289
Rp290
(dp291
g7
I16
sb(lp292
(S'07:18'
p293
S'07:57'
p294
tp295
a(S'08:39'
p296
S'09:17'
p297
tp298
a(S'11:20'
p299
S'12:10'
p300
tp301
a(S'13:03'
p302
S'13:55'
p303
tp304
a(S'14:53'
p305
S'15:34'
p306
tp307
a(S'17:15'
p308
S'17:45'
p309
tp310
a(S'18:04'
p311
S'18:44'
p312
tp313
a(S'19:24'
p314
Ntp315
asg1
(g2
g3
Ntp316
Rp317
(dp318
g7
I17
sb(lp319
(S'08:39'
p320
S'09:26'
p321
tp322
a(S'09:32'
p323
S'10:06'
p324
tp325
a(S'11:20'
p326
S'12:00'
p327
tp328
a(S'13:03'
p329
S'13:54'
p330
tp331
a(S'14:54'
p332
S'15:31'
p333
tp334
a(S'17:15'
p335
S'17:45'
p336
tp337
a(S'18:04'
p338
S'18:44'
p339
tp340
asg1
(g2
g3
Ntp341
Rp342
(dp343
g7
I18
sb(lp344
(S'07:16'
p345
S'08:07'
p346
tp347
a(S'11:20'
p348
S'11:59'
p349
tp350
a(S'13:03'
p351
S'13:54'
p352
tp353
a(S'14:54'
p354
S'15:33'
p355
tp356
a(S'17:01'
p357
S'17:40'
p358
tp359
a(S'18:06'
p360
S'18:44'
p361
tp362
asg1
(g2
g3
Ntp363
Rp364
(dp365
g7
I19
sb(lp366
(S'06:20'
p367
S'06:59'
p368
tp369
a(S'14:55'
p370
S'15:40'
p371
tp372
a(S'16:24'
p373
S'16:29'
p374
tp375
asg1
(g2
g3
Ntp376
Rp377
(dp378
g7
I20
sb(lp379
(S'06:19'
p380
S'06:49'
p381
tp382
a(S'14:37'
p383
S'15:15'
p384
tp385
a(S'15:17'
p386
S'15:55'
p387
tp388
a(S'16:23'
p389
S'17:01'
p390
tp391
as.