(dp0
ccopy_reg
_reconstructor
p1
(cmachine
ClosedMachine
p2
c__builtin__
object
p3
Ntp4
Rp5
(dp6
S'machine_id'
p7
I1
sb(lp8
(S'09:04'
p9
S'09:41'
p10
tp11
a(S'10:47'
p12
S'11:26'
p13
tp14
a(S'12:32'
p15
S'13:09'
p16
tp17
a(S'13:38'
p18
S'14:40'
p19
tp20
a(S'15:31'
p21
S'16:10'
p22
tp23
a(S'16:35'
p24
S'17:15'
p25
tp26
a(S'17:40'
p27
S'18:20'
p28
tp29
a(S'19:06'
p30
S'19:45'
p31
tp32
a(S'19:58'
p33
Ntp34
asg1
(cmachine
BrokenDownMachine
p35
g3
Ntp36
Rp37
(dp38
g7
I2
sb(lp39
S'Ute av drift'
p40
asg1
(g2
g3
Ntp41
Rp42
(dp43
g7
I3
sb(lp44
(S'08:41'
p45
S'09:19'
p46
tp47
a(S'10:24'
p48
S'11:03'
p49
tp50
a(S'11:46'
p51
S'12:28'
p52
tp53
a(S'13:04'
p54
S'13:43'
p55
tp56
a(S'14:15'
p57
S'14:54'
p58
tp59
a(S'15:31'
p60
S'16:08'
p61
tp62
a(S'17:00'
p63
S'17:51'
p64
tp65
a(S'18:15'
p66
S'18:52'
p67
tp68
asg1
(g2
g3
Ntp69
Rp70
(dp71
g7
I4
sb(lp72
(S'10:24'
p73
S'10:54'
p74
tp75
a(S'11:24'
p76
S'12:01'
p77
tp78
a(S'12:32'
p79
S'13:11'
p80
tp81
a(S'13:38'
p82
S'14:21'
p83
tp84
a(S'15:32'
p85
S'16:12'
p86
tp87
a(S'16:31'
p88
S'17:17'
p89
tp90
a(S'17:38'
p91
S'18:12'
p92
tp93
a(S'18:35'
p94
S'19:26'
p95
tp96
a(S'19:58'
p97
Ntp98
asg1
(g2
g3
Ntp99
Rp100
(dp101
g7
I5
sb(lp102
(S'09:09'
p103
S'09:42'
p104
tp105
a(S'10:24'
p106
S'11:01'
p107
tp108
a(S'11:46'
p109
S'12:26'
p110
tp111
a(S'13:05'
p112
S'13:44'
p113
tp114
a(S'14:15'
p115
S'14:48'
p116
tp117
a(S'15:10'
p118
S'15:50'
p119
tp120
a(S'16:30'
p121
S'17:14'
p122
tp123
a(S'17:38'
p124
S'18:15'
p125
tp126
a(S'18:35'
p127
S'19:24'
p128
tp129
a(S'19:57'
p130
Ntp131
asg1
(g2
g3
Ntp132
Rp133
(dp134
g7
I6
sb(lp135
(S'11:46'
p136
S'12:29'
p137
tp138
a(S'13:06'
p139
S'13:46'
p140
tp141
a(S'14:17'
p142
S'14:55'
p143
tp144
a(S'15:10'
p145
S'16:00'
p146
tp147
a(S'16:30'
p148
S'17:18'
p149
tp150
a(S'17:41'
p151
S'18:20'
p152
tp153
a(S'19:28'
p154
Ntp155
asg1
(g2
g3
Ntp156
Rp157
(dp158
g7
I7
sb(lp159
(S'09:15'
p160
S'09:53'
p161
tp162
a(S'11:46'
p163
S'12:28'
p164
tp165
a(S'13:07'
p166
S'13:44'
p167
tp168
a(S'14:17'
p169
S'14:50'
p170
tp171
a(S'15:10'
p172
S'15:40'
p173
tp174
a(S'16:21'
p175
S'17:12'
p176
tp177
a(S'17:28'
p178
S'18:08'
p179
tp180
a(S'19:28'
p181
Ntp182
asg1
(g2
g3
Ntp183
Rp184
(dp185
g7
I8
sb(lp186
(S'09:26'
p187
S'10:13'
p188
tp189
a(S'11:47'
p190
S'12:20'
p191
tp192
a(S'13:08'
p193
S'14:06'
p194
tp195
a(S'14:45'
p196
S'15:35'
p197
tp198
a(S'15:52'
p199
S'16:37'
p200
tp201
a(S'17:43'
p202
S'18:20'
p203
tp204
asg1
(g2
g3
Ntp205
Rp206
(dp207
g7
I9
sb(lp208
(S'09:26'
p209
S'10:25'
p210
tp211
a(S'11:57'
p212
S'12:27'
p213
tp214
a(S'12:44'
p215
S'13:22'
p216
tp217
a(S'15:02'
p218
S'15:52'
p219
tp220
a(S'16:58'
p221
S'17:37'
p222
tp223
a(S'19:29'
p224
Ntp225
asg1
(g2
g3
Ntp226
Rp227
(dp228
g7
I10
sb(lp229
(S'11:57'
p230
S'12:28'
p231
tp232
a(S'12:49'
p233
S'13:19'
p234
tp235
a(S'13:51'
p236
S'14:30'
p237
tp238
a(S'14:43'
p239
S'15:20'
p240
tp241
a(S'16:04'
p242
S'16:51'
p243
tp244
a(S'19:29'
p245
Ntp246
asg1
(g2
g3
Ntp247
Rp248
(dp249
g7
I11
sb(lp250
(S'11:57'
p251
S'12:37'
p252
tp253
a(S'13:09'
p254
S'13:56'
p255
tp256
a(S'14:43'
p257
S'15:22'
p258
tp259
a(S'16:03'
p260
S'16:41'
p261
tp262
a(S'16:57'
p263
S'17:36'
p264
tp265
a(S'17:42'
p266
S'18:18'
p267
tp268
a(S'19:29'
p269
S'19:59'
p270
tp271
asg1
(g2
g3
Ntp272
Rp273
(dp274
g7
I12
sb(lp275
(S'12:47'
p276
S'13:25'
p277
tp278
a(S'13:51'
p279
S'14:30'
p280
tp281
a(S'14:43'
p282
S'15:22'
p283
tp284
a(S'16:02'
p285
S'16:49'
p286
tp287
a(S'16:58'
p288
S'17:44'
p289
tp290
a(S'19:29'
p291
S'19:59'
p292
tp293
asg1
(g2
g3
Ntp294
Rp295
(dp296
g7
I13
sb(lp297
(S'11:49'
p298
S'12:40'
p299
tp300
a(S'13:10'
p301
S'13:49'
p302
tp303
a(S'15:47'
p304
S'16:36'
p305
tp306
asg1
(g2
g3
Ntp307
Rp308
(dp309
g7
I14
sb(lp310
(S'12:36'
p311
S'13:14'
p312
tp313
a(S'13:43'
p314
S'14:20'
p315
tp316
a(S'15:03'
p317
S'15:40'
p318
tp319
a(S'17:06'
p320
S'17:50'
p321
tp322
asg1
(g2
g3
Ntp323
Rp324
(dp325
g7
I15
sb(lp326
(S'11:58'
p327
S'12:38'
p328
tp329
a(S'12:53'
p330
S'13:31'
p331
tp332
a(S'19:30'
p333
Ntp334
asg1
(g2
g3
Ntp335
Rp336
(dp337
g7
I16
sb(lp338
(S'10:49'
p339
S'11:27'
p340
tp341
a(S'12:36'
p342
S'13:15'
p343
tp344
a(S'13:43'
p345
S'14:26'
p346
tp347
a(S'15:02'
p348
S'15:41'
p349
tp350
a(S'16:29'
p351
S'17:06'
p352
tp353
a(S'19:30'
p354
Ntp355
asg1
(g2
g3
Ntp356
Rp357
(dp358
g7
I17
sb(lp359
(S'12:36'
p360
S'13:15'
p361
tp362
a(S'14:19'
p363
S'15:05'
p364
tp365
a(S'15:54'
p366
S'16:51'
p367
tp368
a(S'19:16'
p369
Ntp370
asg1
(g2
g3
Ntp371
Rp372
(dp373
g7
I18
sb(lp374
(S'11:58'
p375
S'12:35'
p376
tp377
a(S'12:53'
p378
S'13:42'
p379
tp380
a(S'16:31'
p381
S'17:31'
p382
tp383
a(S'17:56'
p384
S'18:35'
p385
tp386
asg1
(g35
g3
Ntp387
Rp388
(dp389
g7
I19
sb(lp390
g40
asg1
(g2
g3
Ntp391
Rp392
(dp393
g7
I20
sb(lp394
(S'10:45'
p395
S'11:32'
p396
tp397
a(S'15:02'
p398
S'15:46'
p399
tp400
a(S'17:38'
p401
S'18:15'
p402
tp403
a(S'18:22'
p404
S'18:55'
p405
tp406
a(S'19:56'
p407
Ntp408
as.