(dp0
ccopy_reg
_reconstructor
p1
(cmachine
ClosedMachine
p2
c__builtin__
object
p3
Ntp4
Rp5
(dp6
S'machine_id'
p7
I1
sb(lp8
(S'09:52'
p9
S'10:31'
p10
tp11
a(S'12:05'
p12
S'12:44'
p13
tp14
a(S'14:37'
p15
S'15:27'
p16
tp17
a(S'16:03'
p18
S'16:43'
p19
tp20
a(S'16:53'
p21
S'17:32'
p22
tp23
a(S'17:44'
p24
S'18:22'
p25
tp26
a(S'18:28'
p27
S'19:02'
p28
tp29
a(S'19:26'
p30
Ntp31
asg1
(cmachine
BrokenDownMachine
p32
g3
Ntp33
Rp34
(dp35
g7
I2
sb(lp36
S'Ute av drift'
p37
asg1
(g2
g3
Ntp38
Rp39
(dp40
g7
I3
sb(lp41
(S'07:16'
p42
S'07:59'
p43
tp44
a(S'09:53'
p45
S'10:32'
p46
tp47
a(S'11:32'
p48
S'12:19'
p49
tp50
a(S'14:49'
p51
S'15:28'
p52
tp53
a(S'15:44'
p54
S'16:35'
p55
tp56
a(S'16:55'
p57
S'17:35'
p58
tp59
a(S'17:49'
p60
S'18:26'
p61
tp62
a(S'18:49'
p63
S'19:28'
p64
tp65
a(S'19:47'
p66
Ntp67
asg1
(g2
g3
Ntp68
Rp69
(dp70
g7
I4
sb(lp71
(S'07:16'
p72
S'07:53'
p73
tp74
a(S'11:32'
p75
S'12:26'
p76
tp77
a(S'15:44'
p78
S'16:22'
p79
tp80
a(S'19:26'
p81
Ntp82
asg1
(g2
g3
Ntp83
Rp84
(dp85
g7
I5
sb(lp86
(S'15:40'
p87
S'16:36'
p88
tp89
a(S'17:49'
p90
S'18:28'
p91
tp92
a(S'18:50'
p93
S'19:27'
p94
tp95
a(S'19:49'
p96
Ntp97
asg1
(g2
g3
Ntp98
Rp99
(dp100
g7
I6
sb(lp101
(S'08:18'
p102
S'09:05'
p103
tp104
a(S'09:59'
p105
S'10:43'
p106
tp107
a(S'13:00'
p108
S'13:39'
p109
tp110
a(S'13:57'
p111
S'14:36'
p112
tp113
a(S'16:04'
p114
S'16:37'
p115
tp116
a(S'16:43'
p117
S'17:14'
p118
tp119
a(S'18:06'
p120
S'18:40'
p121
tp122
a(S'19:53'
p123
Ntp124
asg1
(g2
g3
Ntp125
Rp126
(dp127
g7
I7
sb(lp128
(S'08:18'
p129
S'08:57'
p130
tp131
a(S'09:59'
p132
S'10:50'
p133
tp134
a(S'13:00'
p135
S'13:46'
p136
tp137
a(S'13:57'
p138
S'14:36'
p139
tp140
a(S'16:04'
p141
S'16:40'
p142
tp143
a(S'16:43'
p144
S'17:24'
p145
tp146
a(S'18:53'
p147
S'19:30'
p148
tp149
asg1
(g2
g3
Ntp150
Rp151
(dp152
g7
I8
sb(lp153
sg1
(g2
g3
Ntp154
Rp155
(dp156
g7
I9
sb(lp157
(S'07:33'
p158
S'08:09'
p159
tp160
a(S'11:02'
p161
S'11:39'
p162
tp163
a(S'12:02'
p164
S'13:14'
p165
tp166
a(S'14:41'
p167
S'15:28'
p168
tp169
a(S'16:44'
p170
S'17:23'
p171
tp172
a(S'19:07'
p173
S'19:41'
p174
tp175
asg1
(g2
g3
Ntp176
Rp177
(dp178
g7
I10
sb(lp179
(S'11:02'
p180
S'11:32'
p181
tp182
a(S'12:02'
p183
S'13:13'
p184
tp185
a(S'14:39'
p186
S'15:24'
p187
tp188
a(S'16:05'
p189
S'16:45'
p190
tp191
asg1
(g2
g3
Ntp192
Rp193
(dp194
g7
I11
sb(lp195
(S'11:02'
p196
S'11:33'
p197
tp198
a(S'12:03'
p199
S'12:41'
p200
tp201
a(S'14:07'
p202
S'14:47'
p203
tp204
a(S'16:05'
p205
S'16:44'
p206
tp207
a(S'17:50'
p208
S'18:20'
p209
tp210
a(S'19:26'
p211
S'19:56'
p212
tp213
asg1
(g2
g3
Ntp214
Rp215
(dp216
g7
I12
sb(lp217
(S'11:02'
p218
S'11:35'
p219
tp220
a(S'14:06'
p221
S'14:46'
p222
tp223
a(S'16:05'
p224
S'16:42'
p225
tp226
a(S'19:26'
p227
Ntp228
asg1
(g2
g3
Ntp229
Rp230
(dp231
g7
I13
sb(lp232
(S'11:02'
p233
S'11:32'
p234
tp235
a(S'13:10'
p236
S'13:47'
p237
tp238
asg1
(g2
g3
Ntp239
Rp240
(dp241
g7
I14
sb(lp242
(S'11:25'
p243
S'12:12'
p244
tp245
a(S'13:10'
p246
S'13:47'
p247
tp248
a(S'15:57'
p249
S'16:36'
p250
tp251
asg1
(g2
g3
Ntp252
Rp253
(dp254
g7
I15
sb(lp255
(S'12:54'
p256
S'13:47'
p257
tp258
a(S'14:18'
p259
S'14:58'
p260
tp261
a(S'15:57'
p262
S'16:38'
p263
tp264
asg1
(g2
g3
Ntp265
Rp266
(dp267
g7
I16
sb(lp268
(S'12:54'
p269
S'13:45'
p270
tp271
a(S'14:18'
p272
S'14:57'
p273
tp274
a(S'15:57'
p275
S'16:45'
p276
tp277
a(S'18:45'
p278
S'19:24'
p279
tp280
a(S'19:51'
p281
Ntp282
asg1
(g2
g3
Ntp283
Rp284
(dp285
g7
I17
sb(lp286
(S'06:59'
p287
S'07:29'
p288
tp289
a(S'12:54'
p290
S'13:24'
p291
tp292
a(S'14:18'
p293
S'14:57'
p294
tp295
a(S'15:57'
p296
S'16:36'
p297
tp298
a(S'18:45'
p299
S'19:25'
p300
tp301
a(S'19:52'
p302
Ntp303
asg1
(g2
g3
Ntp304
Rp305
(dp306
g7
I18
sb(lp307
(S'06:59'
p308
S'07:32'
p309
tp310
a(S'15:57'
p311
S'16:27'
p312
tp313
a(S'17:43'
p314
S'18:22'
p315
tp316
a(S'19:08'
p317
S'19:48'
p318
tp319
asg1
(g32
g3
Ntp320
Rp321
(dp322
g7
I19
sb(lp323
g37
a(S'09:36'
p324
S'09:54'
p325
tp326
a(S'13:57'
p327
S'14:37'
p328
tp329
a(S'16:30'
p330
S'17:16'
p331
tp332
a(S'19:27'
p333
Ntp334
asg1
(g2
g3
Ntp335
Rp336
(dp337
g7
I20
sb(lp338
(S'12:59'
p339
S'13:29'
p340
tp341
a(S'18:06'
p342
S'18:55'
p343
tp344
as.