(dp0
ccopy_reg
_reconstructor
p1
(cmachine
ClosedMachine
p2
c__builtin__
object
p3
Ntp4
Rp5
(dp6
S'machine_id'
p7
I1
sb(lp8
(S'07:34'
p9
S'08:13'
p10
tp11
a(S'09:18'
p12
S'10:47'
p13
tp14
a(S'11:09'
p15
S'11:14'
p16
tp17
a(S'14:38'
p18
S'15:17'
p19
tp20
a(S'17:33'
p21
S'18:13'
p22
tp23
a(S'18:43'
p24
S'19:20'
p25
tp26
asg1
(g2
g3
Ntp27
Rp28
(dp29
g7
I2
sb(lp30
(S'07:34'
p31
S'08:13'
p32
tp33
a(S'09:31'
p34
S'10:18'
p35
tp36
a(S'11:09'
p37
S'11:47'
p38
tp39
a(S'13:35'
p40
S'14:14'
p41
tp42
a(S'14:49'
p43
S'15:22'
p44
tp45
a(S'16:29'
p46
S'17:08'
p47
tp48
a(S'17:33'
p49
S'18:04'
p50
tp51
a(S'18:43'
p52
S'19:21'
p53
tp54
asg1
(g2
g3
Ntp55
Rp56
(dp57
g7
I3
sb(lp58
(S'07:34'
p59
S'08:21'
p60
tp61
a(S'09:31'
p62
S'10:18'
p63
tp64
a(S'11:10'
p65
S'11:49'
p66
tp67
a(S'13:00'
p68
S'13:47'
p69
tp70
a(S'14:44'
p71
S'15:33'
p72
tp73
a(S'16:29'
p74
S'17:06'
p75
tp76
a(S'17:34'
p77
S'18:04'
p78
tp79
a(S'18:43'
p80
S'19:21'
p81
tp82
asg1
(g2
g3
Ntp83
Rp84
(dp85
g7
I4
sb(lp86
(S'08:30'
p87
S'09:10'
p88
tp89
a(S'14:42'
p90
S'15:33'
p91
tp92
a(S'15:37'
p93
S'16:14'
p94
tp95
a(S'17:34'
p96
S'18:12'
p97
tp98
a(S'18:48'
p99
S'18:53'
p100
tp101
asg1
(g2
g3
Ntp102
Rp103
(dp104
g7
I5
sb(lp105
(S'08:30'
p106
S'09:08'
p107
tp108
a(S'14:19'
p109
S'15:06'
p110
tp111
a(S'18:08'
p112
S'18:48'
p113
tp114
asg1
(g2
g3
Ntp115
Rp116
(dp117
g7
I6
sb(lp118
(S'08:30'
p119
S'09:10'
p120
tp121
a(S'14:16'
p122
S'14:56'
p123
tp124
a(S'15:03'
p125
S'15:57'
p126
tp127
a(S'16:51'
p128
S'17:30'
p129
tp130
a(S'19:37'
p131
Ntp132
asg1
(g2
g3
Ntp133
Rp134
(dp135
g7
I7
sb(lp136
(S'06:59'
p137
S'07:38'
p138
tp139
a(S'08:30'
p140
S'09:08'
p141
tp142
a(S'13:36'
p143
S'14:15'
p144
tp145
a(S'14:42'
p146
S'15:22'
p147
tp148
a(S'18:08'
p149
S'18:47'
p150
tp151
a(S'19:37'
p152
Ntp153
asg1
(g2
g3
Ntp154
Rp155
(dp156
g7
I8
sb(lp157
(S'12:13'
p158
S'12:51'
p159
tp160
a(S'14:55'
p161
S'15:33'
p162
tp163
asg1
(g2
g3
Ntp164
Rp165
(dp166
g7
I9
sb(lp167
(S'09:58'
p168
S'10:36'
p169
tp170
a(S'12:13'
p171
S'12:53'
p172
tp173
a(S'14:43'
p174
S'15:22'
p175
tp176
asg1
(g2
g3
Ntp177
Rp178
(dp179
g7
I10
sb(lp180
(S'08:16'
p181
S'08:54'
p182
tp183
a(S'09:58'
p184
S'10:36'
p185
tp186
a(S'11:58'
p187
S'12:48'
p188
tp189
a(S'12:51'
p190
S'13:30'
p191
tp192
a(S'14:41'
p193
S'15:20'
p194
tp195
a(S'15:27'
p196
S'16:06'
p197
tp198
a(S'17:35'
p199
S'18:14'
p200
tp201
a(S'19:50'
p202
Ntp203
asg1
(g2
g3
Ntp204
Rp205
(dp206
g7
I11
sb(lp207
(S'08:16'
p208
S'09:00'
p209
tp210
a(S'09:58'
p211
S'10:37'
p212
tp213
a(S'11:39'
p214
S'12:18'
p215
tp216
a(S'12:41'
p217
S'13:11'
p218
tp219
a(S'14:41'
p220
S'15:20'
p221
tp222
a(S'17:35'
p223
S'18:14'
p224
tp225
asg1
(g2
g3
Ntp226
Rp227
(dp228
g7
I12
sb(lp229
(S'08:32'
p230
S'09:10'
p231
tp232
a(S'12:14'
p233
S'12:53'
p234
tp235
a(S'14:57'
p236
S'15:48'
p237
tp238
asg1
(g2
g3
Ntp239
Rp240
(dp241
g7
I13
sb(lp242
(S'08:33'
p243
S'09:12'
p244
tp245
a(S'09:31'
p246
S'10:18'
p247
tp248
a(S'11:20'
p249
S'12:17'
p250
tp251
a(S'12:30'
p252
S'13:04'
p253
tp254
a(S'13:27'
p255
S'14:07'
p256
tp257
a(S'14:41'
p258
S'15:20'
p259
tp260
asg1
(g2
g3
Ntp261
Rp262
(dp263
g7
I14
sb(lp264
(S'08:20'
p265
S'09:00'
p266
tp267
a(S'11:20'
p268
S'12:16'
p269
tp270
a(S'12:30'
p271
S'13:04'
p272
tp273
a(S'13:28'
p274
S'14:07'
p275
tp276
a(S'14:41'
p277
S'15:18'
p278
tp279
a(S'15:28'
p280
S'16:05'
p281
tp282
asg1
(cmachine
BrokenDownMachine
p283
g3
Ntp284
Rp285
(dp286
g7
I15
sb(lp287
S'Ute av drift'
p288
asg1
(g2
g3
Ntp289
Rp290
(dp291
g7
I16
sb(lp292
(S'06:13'
p293
S'06:51'
p294
tp295
a(S'08:21'
p296
S'08:58'
p297
tp298
a(S'11:39'
p299
S'12:19'
p300
tp301
a(S'12:41'
p302
S'13:20'
p303
tp304
a(S'14:41'
p305
S'15:21'
p306
tp307
asg1
(g2
g3
Ntp308
Rp309
(dp310
g7
I17
sb(lp311
(S'06:13'
p312
S'06:52'
p313
tp314
a(S'08:33'
p315
S'09:10'
p316
tp317
a(S'10:32'
p318
S'11:10'
p319
tp320
a(S'11:58'
p321
S'12:38'
p322
tp323
a(S'12:50'
p324
S'13:21'
p325
tp326
a(S'14:41'
p327
S'15:45'
p328
tp329
a(S'18:11'
p330
S'19:02'
p331
tp332
a(S'19:40'
p333
Ntp334
asg1
(g2
g3
Ntp335
Rp336
(dp337
g7
I18
sb(lp338
(S'10:32'
p339
S'11:11'
p340
tp341
a(S'11:58'
p342
S'12:37'
p343
tp344
a(S'12:53'
p345
S'13:31'
p346
tp347
a(S'13:42'
p348
S'14:39'
p349
tp350
a(S'14:41'
p351
S'15:30'
p352
tp353
asg1
(g2
g3
Ntp354
Rp355
(dp356
g7
I19
sb(lp357
(S'07:08'
p358
S'07:38'
p359
tp360
a(S'12:16'
p361
S'13:19'
p362
tp363
asg1
(g2
g3
Ntp364
Rp365
(dp366
g7
I20
sb(lp367
(S'06:57'
p368
S'07:34'
p369
tp370
a(S'09:27'
p371
S'10:07'
p372
tp373
a(S'11:35'
p374
S'12:13'
p375
tp376
a(S'12:43'
p377
S'12:45'
p378
tp379
a(S'12:46'
p380
S'12:47'
p381
tp382
a(S'13:29'
p383
S'13:32'
p384
tp385
a(S'14:43'
p386
S'15:13'
p387
tp388
as.