(dp0
ccopy_reg
_reconstructor
p1
(cmachine
ClosedMachine
p2
c__builtin__
object
p3
Ntp4
Rp5
(dp6
S'machine_id'
p7
I1
sb(lp8
(S'07:23'
p9
S'08:00'
p10
tp11
a(S'08:47'
p12
S'09:20'
p13
tp14
a(S'10:16'
p15
S'10:52'
p16
tp17
a(S'10:57'
p18
S'11:34'
p19
tp20
a(S'12:32'
p21
S'13:11'
p22
tp23
asg1
(g2
g3
Ntp24
Rp25
(dp26
g7
I2
sb(lp27
(S'07:33'
p28
S'08:20'
p29
tp30
a(S'10:18'
p31
S'11:09'
p32
tp33
a(S'12:32'
p34
S'13:11'
p35
tp36
a(S'14:49'
p37
S'14:54'
p38
tp39
a(S'15:28'
p40
S'16:02'
p41
tp42
a(S'17:46'
p43
S'18:34'
p44
tp45
asg1
(g2
g3
Ntp46
Rp47
(dp48
g7
I3
sb(lp49
(S'06:47'
p50
S'07:36'
p51
tp52
a(S'08:47'
p53
S'09:24'
p54
tp55
a(S'10:22'
p56
S'11:00'
p57
tp58
a(S'12:29'
p59
S'13:07'
p60
tp61
a(S'14:49'
p62
S'15:27'
p63
tp64
a(S'15:54'
p65
S'16:46'
p66
tp67
a(S'17:46'
p68
S'18:57'
p69
tp70
asg1
(g2
g3
Ntp71
Rp72
(dp73
g7
I4
sb(lp74
(S'07:20'
p75
S'08:00'
p76
tp77
a(S'08:31'
p78
S'09:21'
p79
tp80
a(S'09:34'
p81
S'10:23'
p82
tp83
a(S'10:55'
p84
S'11:32'
p85
tp86
a(S'14:49'
p87
S'15:36'
p88
tp89
a(S'15:54'
p90
S'16:45'
p91
tp92
a(S'19:39'
p93
Ntp94
asg1
(g2
g3
Ntp95
Rp96
(dp97
g7
I5
sb(lp98
(S'07:20'
p99
S'07:58'
p100
tp101
a(S'08:31'
p102
S'09:08'
p103
tp104
a(S'09:34'
p105
S'10:21'
p106
tp107
a(S'12:52'
p108
S'13:31'
p109
tp110
a(S'13:58'
p111
S'14:50'
p112
tp113
a(S'15:21'
p114
S'16:00'
p115
tp116
a(S'19:39'
p117
Ntp118
asg1
(g2
g3
Ntp119
Rp120
(dp121
g7
I6
sb(lp122
(S'09:22'
p123
S'10:07'
p124
tp125
a(S'15:19'
p126
S'16:10'
p127
tp128
a(S'17:52'
p129
S'18:43'
p130
tp131
asg1
(g2
g3
Ntp132
Rp133
(dp134
g7
I7
sb(lp135
(S'09:09'
p136
S'09:56'
p137
tp138
a(S'10:09'
p139
S'10:56'
p140
tp141
a(S'13:40'
p142
S'14:19'
p143
tp144
a(S'14:38'
p145
S'15:26'
p146
tp147
a(S'15:58'
p148
S'16:37'
p149
tp150
a(S'17:52'
p151
S'18:31'
p152
tp153
asg1
(g2
g3
Ntp154
Rp155
(dp156
g7
I8
sb(lp157
(S'09:09'
p158
S'09:49'
p159
tp160
a(S'10:09'
p161
S'10:46'
p162
tp163
a(S'13:06'
p164
S'13:55'
p165
tp166
a(S'14:47'
p167
S'15:20'
p168
tp169
a(S'15:38'
p170
S'16:17'
p171
tp172
a(S'17:56'
p173
S'18:34'
p174
tp175
a(S'18:59'
p176
S'19:38'
p177
tp178
asg1
(g2
g3
Ntp179
Rp180
(dp181
g7
I9
sb(lp182
(S'10:14'
p183
S'11:04'
p184
tp185
a(S'12:52'
p186
S'13:31'
p187
tp188
a(S'14:16'
p189
S'14:53'
p190
tp191
a(S'15:22'
p192
S'16:01'
p193
tp194
a(S'17:56'
p195
S'18:35'
p196
tp197
a(S'18:59'
p198
S'19:39'
p199
tp200
asg1
(g2
g3
Ntp201
Rp202
(dp203
g7
I10
sb(lp204
(S'07:29'
p205
S'08:02'
p206
tp207
a(S'08:29'
p208
S'09:19'
p209
tp210
a(S'10:08'
p211
S'10:46'
p212
tp213
a(S'12:22'
p214
S'13:02'
p215
tp216
a(S'14:16'
p217
S'14:56'
p218
tp219
a(S'15:23'
p220
S'15:53'
p221
tp222
a(S'17:56'
p223
S'18:35'
p224
tp225
a(S'18:59'
p226
S'19:37'
p227
tp228
asg1
(g2
g3
Ntp229
Rp230
(dp231
g7
I11
sb(lp232
(S'08:29'
p233
S'09:06'
p234
tp235
a(S'10:09'
p236
S'10:46'
p237
tp238
a(S'12:26'
p239
S'13:04'
p240
tp241
a(S'14:43'
p242
S'15:23'
p243
tp244
a(S'16:07'
p245
S'16:58'
p246
tp247
a(S'18:10'
p248
S'19:03'
p249
tp250
asg1
(g2
g3
Ntp251
Rp252
(dp253
g7
I12
sb(lp254
(S'09:34'
p255
S'10:21'
p256
tp257
a(S'12:26'
p258
S'12:56'
p259
tp260
a(S'14:20'
p261
S'14:53'
p262
tp263
a(S'15:19'
p264
S'15:57'
p265
tp266
a(S'16:46'
p267
S'17:25'
p268
tp269
a(S'18:12'
p270
S'19:03'
p271
tp272
asg1
(g2
g3
Ntp273
Rp274
(dp275
g7
I13
sb(lp276
(S'07:58'
p277
S'08:45'
p278
tp279
a(S'09:40'
p280
S'10:17'
p281
tp282
a(S'12:52'
p283
S'13:31'
p284
tp285
a(S'14:48'
p286
S'15:28'
p287
tp288
a(S'16:00'
p289
S'16:38'
p290
tp291
asg1
(g2
g3
Ntp292
Rp293
(dp294
g7
I14
sb(lp295
(S'07:58'
p296
S'08:44'
p297
tp298
a(S'09:40'
p299
S'10:10'
p300
tp301
a(S'10:13'
p302
S'10:43'
p303
tp304
a(S'11:02'
p305
S'11:19'
p306
tp307
a(S'11:37'
p308
S'11:57'
p309
tp310
a(S'14:43'
p311
S'15:20'
p312
tp313
a(S'16:46'
p314
S'17:25'
p315
tp316
asg1
(cmachine
BrokenDownMachine
p317
g3
Ntp318
Rp319
(dp320
g7
I15
sb(lp321
S'Ute av drift'
p322
asg1
(g2
g3
Ntp323
Rp324
(dp325
g7
I16
sb(lp326
(S'07:28'
p327
S'08:02'
p328
tp329
a(S'09:41'
p330
S'10:20'
p331
tp332
a(S'11:04'
p333
S'11:37'
p334
tp335
a(S'12:21'
p336
S'13:01'
p337
tp338
a(S'14:45'
p339
S'15:32'
p340
tp341
a(S'15:55'
p342
S'16:33'
p343
tp344
asg1
(g2
g3
Ntp345
Rp346
(dp347
g7
I17
sb(lp348
(S'07:28'
p349
S'07:58'
p350
tp351
a(S'08:41'
p352
S'09:15'
p353
tp354
a(S'10:11'
p355
S'10:48'
p356
tp357
a(S'12:23'
p358
S'13:12'
p359
tp360
a(S'13:41'
p361
S'14:19'
p362
tp363
a(S'14:42'
p364
S'15:39'
p365
tp366
a(S'15:55'
p367
S'16:33'
p368
tp369
a(S'19:00'
p370
S'19:37'
p371
tp372
asg1
(g2
g3
Ntp373
Rp374
(dp375
g7
I18
sb(lp376
(S'07:28'
p377
S'08:07'
p378
tp379
a(S'08:41'
p380
S'09:18'
p381
tp382
a(S'10:10'
p383
S'10:48'
p384
tp385
a(S'12:23'
p386
S'13:01'
p387
tp388
a(S'14:47'
p389
S'15:21'
p390
tp391
a(S'16:01'
p392
S'16:39'
p393
tp394
a(S'19:00'
p395
S'19:39'
p396
tp397
asg1
(g2
g3
Ntp398
Rp399
(dp400
g7
I19
sb(lp401
(S'09:22'
p402
S'10:08'
p403
tp404
a(S'14:56'
p405
S'15:35'
p406
tp407
asg1
(g2
g3
Ntp408
Rp409
(dp410
g7
I20
sb(lp411
(S'10:15'
p412
S'10:52'
p413
tp414
a(S'11:48'
p415
S'12:34'
p416
tp417
a(S'14:57'
p418
S'15:35'
p419
tp420
as.