(dp0
ccopy_reg
_reconstructor
p1
(cmachine
ClosedMachine
p2
c__builtin__
object
p3
Ntp4
Rp5
(dp6
S'machine_id'
p7
I1
sb(lp8
(S'17:27'
p9
S'18:05'
p10
tp11
asg1
(cmachine
BrokenDownMachine
p12
g3
Ntp13
Rp14
(dp15
g7
I2
sb(lp16
S'Ute av drift'
p17
asg1
(g2
g3
Ntp18
Rp19
(dp20
g7
I3
sb(lp21
(S'08:32'
p22
S'09:22'
p23
tp24
a(S'09:53'
p25
S'10:31'
p26
tp27
a(S'14:35'
p28
S'15:22'
p29
tp30
a(S'16:39'
p31
S'17:15'
p32
tp33
a(S'19:25'
p34
Ntp35
asg1
(g2
g3
Ntp36
Rp37
(dp38
g7
I4
sb(lp39
(S'08:35'
p40
S'09:14'
p41
tp42
a(S'09:52'
p43
S'10:32'
p44
tp45
a(S'14:35'
p46
S'15:21'
p47
tp48
a(S'16:30'
p49
S'17:09'
p50
tp51
a(S'17:20'
p52
S'18:06'
p53
tp54
a(S'19:09'
p55
S'19:55'
p56
tp57
asg1
(g2
g3
Ntp58
Rp59
(dp60
g7
I5
sb(lp61
(S'09:51'
p62
S'10:27'
p63
tp64
a(S'16:39'
p65
S'17:25'
p66
tp67
a(S'18:37'
p68
S'19:16'
p69
tp70
asg1
(g2
g3
Ntp71
Rp72
(dp73
g7
I6
sb(lp74
(S'14:58'
p75
S'15:37'
p76
tp77
a(S'16:39'
p78
S'17:26'
p79
tp80
asg1
(g2
g3
Ntp81
Rp82
(dp83
g7
I7
sb(lp84
(S'14:59'
p85
S'15:38'
p86
tp87
a(S'17:10'
p88
S'17:57'
p89
tp90
a(S'18:43'
p91
S'19:22'
p92
tp93
asg1
(g2
g3
Ntp94
Rp95
(dp96
g7
I8
sb(lp97
sg1
(g2
g3
Ntp98
Rp99
(dp100
g7
I9
sb(lp101
(S'09:23'
p102
S'10:10'
p103
tp104
a(S'10:55'
p105
S'11:33'
p106
tp107
a(S'14:36'
p108
S'15:13'
p109
tp110
a(S'15:54'
p111
S'16:30'
p112
tp113
a(S'17:14'
p114
S'18:14'
p115
tp116
a(S'19:21'
p117
S'19:59'
p118
tp119
asg1
(g2
g3
Ntp120
Rp121
(dp122
g7
I10
sb(lp123
(S'09:24'
p124
S'10:03'
p125
tp126
a(S'10:55'
p127
S'11:33'
p128
tp129
a(S'14:36'
p130
S'15:14'
p131
tp132
a(S'19:21'
p133
Ntp134
asg1
(g2
g3
Ntp135
Rp136
(dp137
g7
I11
sb(lp138
(S'09:24'
p139
S'10:01'
p140
tp141
a(S'10:55'
p142
S'11:34'
p143
tp144
a(S'14:36'
p145
S'15:14'
p146
tp147
a(S'17:22'
p148
S'18:20'
p149
tp150
a(S'19:32'
p151
Ntp152
asg1
(g2
g3
Ntp153
Rp154
(dp155
g7
I12
sb(lp156
(S'08:04'
p157
S'08:55'
p158
tp159
a(S'10:55'
p160
S'11:32'
p161
tp162
a(S'14:36'
p163
S'15:14'
p164
tp165
a(S'19:32'
p166
Ntp167
asg1
(g2
g3
Ntp168
Rp169
(dp170
g7
I13
sb(lp171
(S'13:30'
p172
S'14:14'
p173
tp174
a(S'18:05'
p175
S'18:45'
p176
tp177
asg1
(g2
g3
Ntp178
Rp179
(dp180
g7
I14
sb(lp181
(S'08:04'
p182
S'08:43'
p183
tp184
a(S'10:55'
p185
S'11:34'
p186
tp187
a(S'18:05'
p188
S'18:44'
p189
tp190
asg1
(g2
g3
Ntp191
Rp192
(dp193
g7
I15
sb(lp194
(S'08:04'
p195
S'08:42'
p196
tp197
a(S'10:55'
p198
S'11:33'
p199
tp200
asg1
(g2
g3
Ntp201
Rp202
(dp203
g7
I16
sb(lp204
(S'10:55'
p205
S'11:35'
p206
tp207
a(S'12:13'
p208
S'13:03'
p209
tp210
a(S'13:45'
p211
S'14:25'
p212
tp213
asg1
(g2
g3
Ntp214
Rp215
(dp216
g7
I17
sb(lp217
(S'08:42'
p218
S'09:21'
p219
tp220
a(S'11:36'
p221
S'12:14'
p222
tp223
a(S'13:45'
p224
S'14:24'
p225
tp226
a(S'15:30'
p227
S'16:09'
p228
tp229
a(S'17:37'
p230
S'18:23'
p231
tp232
a(S'18:51'
p233
S'19:31'
p234
tp235
asg1
(g2
g3
Ntp236
Rp237
(dp238
g7
I18
sb(lp239
(S'09:50'
p240
S'10:37'
p241
tp242
a(S'11:36'
p243
S'12:16'
p244
tp245
a(S'13:43'
p246
S'14:34'
p247
tp248
a(S'17:37'
p249
S'18:22'
p250
tp251
a(S'18:51'
p252
S'19:29'
p253
tp254
asg1
(g2
g3
Ntp255
Rp256
(dp257
g7
I19
sb(lp258
(S'09:50'
p259
S'10:36'
p260
tp261
a(S'17:10'
p262
S'17:56'
p263
tp264
asg1
(g2
g3
Ntp265
Rp266
(dp267
g7
I20
sb(lp268
(S'09:31'
p269
S'10:10'
p270
tp271
a(S'17:10'
p272
S'17:56'
p273
tp274
a(S'19:28'
p275
Ntp276
as.