(dp0
ccopy_reg
_reconstructor
p1
(cmachine
ClosedMachine
p2
c__builtin__
object
p3
Ntp4
Rp5
(dp6
S'machine_id'
p7
I1
sb(lp8
(S'08:04'
p9
S'08:41'
p10
tp11
a(S'13:21'
p12
S'13:59'
p13
tp14
a(S'19:01'
p15
S'19:41'
p16
tp17
asg1
(cmachine
BrokenDownMachine
p18
g3
Ntp19
Rp20
(dp21
g7
I2
sb(lp22
S'Ute av drift'
p23
asg1
(g2
g3
Ntp24
Rp25
(dp26
g7
I3
sb(lp27
(S'08:04'
p28
S'08:41'
p29
tp30
a(S'13:21'
p31
S'14:00'
p32
tp33
a(S'16:17'
p34
S'17:03'
p35
tp36
a(S'17:31'
p37
S'18:09'
p38
tp39
a(S'19:27'
p40
Ntp41
asg1
(g2
g3
Ntp42
Rp43
(dp44
g7
I4
sb(lp45
(S'08:04'
p46
S'08:43'
p47
tp48
a(S'13:21'
p49
S'14:00'
p50
tp51
a(S'17:52'
p52
S'18:29'
p53
tp54
a(S'19:07'
p55
S'19:43'
p56
tp57
asg1
(g2
g3
Ntp58
Rp59
(dp60
g7
I5
sb(lp61
(S'08:03'
p62
S'08:43'
p63
tp64
a(S'10:29'
p65
S'11:15'
p66
tp67
a(S'13:21'
p68
S'14:00'
p69
tp70
a(S'15:56'
p71
S'16:32'
p72
tp73
a(S'17:04'
p74
S'17:41'
p75
tp76
a(S'19:01'
p77
S'19:40'
p78
tp79
asg1
(g2
g3
Ntp80
Rp81
(dp82
g7
I6
sb(lp83
(S'13:18'
p84
S'13:55'
p85
tp86
a(S'15:28'
p87
S'16:20'
p88
tp89
a(S'19:26'
p90
Ntp91
asg1
(g2
g3
Ntp92
Rp93
(dp94
g7
I7
sb(lp95
(S'13:18'
p96
S'13:58'
p97
tp98
a(S'15:28'
p99
S'16:20'
p100
tp101
a(S'19:34'
p102
Ntp103
asg1
(g2
g3
Ntp104
Rp105
(dp106
g7
I8
sb(lp107
(S'13:21'
p108
S'14:09'
p109
tp110
a(S'16:31'
p111
S'17:19'
p112
tp113
a(S'18:57'
p114
S'19:47'
p115
tp116
a(S'19:56'
p117
Ntp118
asg1
(g2
g3
Ntp119
Rp120
(dp121
g7
I9
sb(lp122
(S'09:38'
p123
S'10:17'
p124
tp125
a(S'12:14'
p126
S'12:52'
p127
tp128
a(S'16:31'
p129
S'17:17'
p130
tp131
a(S'18:57'
p132
S'19:36'
p133
tp134
asg1
(g2
g3
Ntp135
Rp136
(dp137
g7
I10
sb(lp138
(S'09:38'
p139
S'10:16'
p140
tp141
a(S'14:46'
p142
S'15:33'
p143
tp144
a(S'16:28'
p145
S'17:07'
p146
tp147
a(S'18:57'
p148
S'19:47'
p149
tp150
asg1
(g2
g3
Ntp151
Rp152
(dp153
g7
I11
sb(lp154
(S'13:55'
p155
S'14:34'
p156
tp157
a(S'16:28'
p158
S'17:07'
p159
tp160
a(S'18:58'
p161
S'19:36'
p162
tp163
asg1
(g2
g3
Ntp164
Rp165
(dp166
g7
I12
sb(lp167
(S'13:55'
p168
S'14:34'
p169
tp170
a(S'16:25'
p171
S'17:02'
p172
tp173
a(S'18:04'
p174
S'18:40'
p175
tp176
asg1
(g2
g3
Ntp177
Rp178
(dp179
g7
I13
sb(lp180
(S'08:14'
p181
S'08:53'
p182
tp183
a(S'19:26'
p184
Ntp185
asg1
(g2
g3
Ntp186
Rp187
(dp188
g7
I14
sb(lp189
(S'08:14'
p190
S'08:53'
p191
tp192
a(S'19:33'
p193
Ntp194
asg1
(g2
g3
Ntp195
Rp196
(dp197
g7
I15
sb(lp198
(S'09:24'
p199
S'10:02'
p200
tp201
a(S'14:46'
p202
S'15:34'
p203
tp204
a(S'17:18'
p205
S'18:05'
p206
tp207
a(S'19:20'
p208
S'19:58'
p209
tp210
asg1
(g2
g3
Ntp211
Rp212
(dp213
g7
I16
sb(lp214
(S'09:24'
p215
S'10:02'
p216
tp217
a(S'14:46'
p218
S'15:34'
p219
tp220
a(S'17:18'
p221
S'18:12'
p222
tp223
a(S'19:20'
p224
Ntp225
asg1
(g2
g3
Ntp226
Rp227
(dp228
g7
I17
sb(lp229
(S'08:13'
p230
S'09:03'
p231
tp232
a(S'19:38'
p233
Ntp234
asg1
(g2
g3
Ntp235
Rp236
(dp237
g7
I18
sb(lp238
(S'08:13'
p239
S'09:03'
p240
tp241
a(S'19:36'
p242
Ntp243
asg1
(g2
g3
Ntp244
Rp245
(dp246
g7
I19
sb(lp247
(S'08:14'
p248
S'08:53'
p249
tp250
a(S'17:23'
p251
S'18:01'
p252
tp253
asg1
(g2
g3
Ntp254
Rp255
(dp256
g7
I20
sb(lp257
(S'17:23'
p258
S'18:09'
p259
tp260
as.