(dp0
ccopy_reg
_reconstructor
p1
(cmachine
ClosedMachine
p2
c__builtin__
object
p3
Ntp4
Rp5
(dp6
S'machine_id'
p7
I1
sb(lp8
(S'08:33'
p9
S'09:13'
p10
tp11
a(S'10:00'
p12
S'10:39'
p13
tp14
a(S'10:41'
p15
S'11:18'
p16
tp17
a(S'11:23'
p18
S'12:04'
p19
tp20
a(S'13:26'
p21
S'14:05'
p22
tp23
a(S'14:33'
p24
S'15:12'
p25
tp26
a(S'16:26'
p27
S'17:03'
p28
tp29
asg1
(g2
g3
Ntp30
Rp31
(dp32
g7
I2
sb(lp33
(S'08:33'
p34
S'09:12'
p35
tp36
a(S'10:00'
p37
S'10:39'
p38
tp39
a(S'10:47'
p40
S'11:26'
p41
tp42
a(S'12:17'
p43
S'12:56'
p44
tp45
a(S'13:26'
p46
S'14:15'
p47
tp48
a(S'14:33'
p49
S'15:11'
p50
tp51
a(S'15:29'
p52
S'16:16'
p53
tp54
a(S'17:06'
p55
S'17:36'
p56
tp57
asg1
(g2
g3
Ntp58
Rp59
(dp60
g7
I3
sb(lp61
(S'08:33'
p62
S'09:10'
p63
tp64
a(S'10:00'
p65
S'10:37'
p66
tp67
a(S'10:47'
p68
S'11:24'
p69
tp70
a(S'12:17'
p71
S'12:54'
p72
tp73
a(S'13:14'
p74
S'13:53'
p75
tp76
a(S'15:03'
p77
S'15:36'
p78
tp79
asg1
(g2
g3
Ntp80
Rp81
(dp82
g7
I4
sb(lp83
(S'08:33'
p84
S'09:10'
p85
tp86
a(S'10:00'
p87
S'10:38'
p88
tp89
a(S'10:47'
p90
S'11:26'
p91
tp92
a(S'12:17'
p93
S'12:51'
p94
tp95
a(S'13:14'
p96
S'13:53'
p97
tp98
a(S'15:03'
p99
S'15:37'
p100
tp101
a(S'16:42'
p102
S'17:29'
p103
tp104
a(S'18:14'
p105
S'18:56'
p106
tp107
a(S'19:57'
p108
Ntp109
asg1
(g2
g3
Ntp110
Rp111
(dp112
g7
I5
sb(lp113
(S'07:22'
p114
S'08:00'
p115
tp116
a(S'09:13'
p117
S'10:00'
p118
tp119
a(S'10:14'
p120
S'11:02'
p121
tp122
a(S'11:13'
p123
S'12:00'
p124
tp125
a(S'12:38'
p126
S'13:16'
p127
tp128
a(S'13:43'
p129
S'14:28'
p130
tp131
a(S'15:24'
p132
S'16:10'
p133
tp134
a(S'16:42'
p135
S'17:29'
p136
tp137
a(S'17:44'
p138
S'18:21'
p139
tp140
a(S'19:57'
p141
Ntp142
asg1
(g2
g3
Ntp143
Rp144
(dp145
g7
I6
sb(lp146
(S'10:11'
p147
S'10:50'
p148
tp149
a(S'11:20'
p150
S'11:58'
p151
tp152
a(S'13:15'
p153
S'13:48'
p154
tp155
a(S'14:12'
p156
S'14:51'
p157
tp158
a(S'15:06'
p159
S'15:43'
p160
tp161
a(S'18:26'
p162
S'19:05'
p163
tp164
asg1
(g2
g3
Ntp165
Rp166
(dp167
g7
I7
sb(lp168
(S'10:11'
p169
S'10:50'
p170
tp171
a(S'11:21'
p172
S'11:58'
p173
tp174
a(S'13:12'
p175
S'14:01'
p176
tp177
a(S'14:13'
p178
S'15:25'
p179
tp180
a(S'15:41'
p181
S'16:20'
p182
tp183
a(S'18:25'
p184
S'19:06'
p185
tp186
asg1
(g2
g3
Ntp187
Rp188
(dp189
g7
I8
sb(lp190
(S'08:49'
p191
S'09:40'
p192
tp193
a(S'10:33'
p194
S'11:19'
p195
tp196
a(S'12:17'
p197
S'12:56'
p198
tp199
a(S'13:13'
p200
S'13:47'
p201
tp202
a(S'15:06'
p203
S'15:43'
p204
tp205
a(S'17:09'
p206
S'17:56'
p207
tp208
asg1
(g2
g3
Ntp209
Rp210
(dp211
g7
I9
sb(lp212
(S'08:50'
p213
S'09:28'
p214
tp215
a(S'10:33'
p216
S'11:19'
p217
tp218
a(S'12:17'
p219
S'12:57'
p220
tp221
a(S'13:13'
p222
S'14:03'
p223
tp224
a(S'14:23'
p225
S'15:10'
p226
tp227
a(S'15:41'
p228
S'16:18'
p229
tp230
a(S'17:09'
p231
S'17:46'
p232
tp233
a(S'18:27'
p234
S'18:57'
p235
tp236
asg1
(g2
g3
Ntp237
Rp238
(dp239
g7
I10
sb(lp240
(S'09:08'
p241
S'09:47'
p242
tp243
a(S'10:23'
p244
S'11:02'
p245
tp246
a(S'11:35'
p247
S'12:14'
p248
tp249
a(S'13:25'
p250
S'14:15'
p251
tp252
a(S'15:32'
p253
S'16:09'
p254
tp255
asg1
(g2
g3
Ntp256
Rp257
(dp258
g7
I11
sb(lp259
(S'08:52'
p260
S'09:32'
p261
tp262
a(S'10:25'
p263
S'10:55'
p264
tp265
a(S'11:54'
p266
S'12:32'
p267
tp268
a(S'12:56'
p269
S'13:27'
p270
tp271
a(S'13:33'
p272
S'14:23'
p273
tp274
a(S'14:45'
p275
S'15:25'
p276
tp277
a(S'15:43'
p278
S'16:21'
p279
tp280
a(S'16:46'
p281
S'17:24'
p282
tp283
a(S'18:27'
p284
S'19:06'
p285
tp286
a(S'19:22'
p287
S'19:58'
p288
tp289
asg1
(g2
g3
Ntp290
Rp291
(dp292
g7
I12
sb(lp293
(S'08:52'
p294
S'09:30'
p295
tp296
a(S'10:30'
p297
S'11:20'
p298
tp299
a(S'11:54'
p300
S'12:40'
p301
tp302
a(S'12:57'
p303
S'13:27'
p304
tp305
a(S'13:42'
p306
S'14:21'
p307
tp308
a(S'14:38'
p309
S'15:26'
p310
tp311
a(S'15:35'
p312
S'16:13'
p313
tp314
a(S'16:46'
p315
S'17:24'
p316
tp317
a(S'18:27'
p318
S'19:06'
p319
tp320
asg1
(g2
g3
Ntp321
Rp322
(dp323
g7
I13
sb(lp324
(S'08:53'
p325
S'09:23'
p326
tp327
a(S'10:30'
p328
S'11:07'
p329
tp330
a(S'12:35'
p331
S'12:40'
p332
tp333
a(S'13:41'
p334
S'14:32'
p335
tp336
a(S'14:46'
p337
S'15:24'
p338
tp339
a(S'15:44'
p340
S'16:23'
p341
tp342
asg1
(g2
g3
Ntp343
Rp344
(dp345
g7
I14
sb(lp346
(S'10:33'
p347
S'11:12'
p348
tp349
a(S'12:35'
p350
S'12:40'
p351
tp352
a(S'14:23'
p353
S'15:25'
p354
tp355
asg1
(cmachine
BrokenDownMachine
p356
g3
Ntp357
Rp358
(dp359
g7
I15
sb(lp360
S'Ute av drift'
p361
asg1
(g2
g3
Ntp362
Rp363
(dp364
g7
I16
sb(lp365
(S'09:07'
p366
S'09:44'
p367
tp368
a(S'10:10'
p369
S'10:49'
p370
tp371
a(S'11:00'
p372
S'11:50'
p373
tp374
a(S'12:35'
p375
S'12:41'
p376
tp377
a(S'13:30'
p378
S'14:17'
p379
tp380
a(S'14:46'
p381
S'15:20'
p382
tp383
a(S'15:44'
p384
S'16:15'
p385
tp386
a(S'17:16'
p387
S'17:54'
p388
tp389
asg1
(g2
g3
Ntp390
Rp391
(dp392
g7
I17
sb(lp393
(S'08:20'
p394
S'09:10'
p395
tp396
a(S'10:10'
p397
S'10:49'
p398
tp399
a(S'11:00'
p400
S'11:46'
p401
tp402
a(S'11:49'
p403
S'12:28'
p404
tp405
a(S'12:37'
p406
S'13:29'
p407
tp408
a(S'13:41'
p409
S'14:20'
p410
tp411
a(S'14:47'
p412
S'15:26'
p413
tp414
a(S'17:17'
p415
S'17:56'
p416
tp417
asg1
(g2
g3
Ntp418
Rp419
(dp420
g7
I18
sb(lp421
(S'08:27'
p422
S'09:06'
p423
tp424
a(S'10:16'
p425
S'11:05'
p426
tp427
a(S'11:22'
p428
S'12:02'
p429
tp430
a(S'13:23'
p431
S'14:02'
p432
tp433
a(S'14:25'
p434
S'15:13'
p435
tp436
asg1
(g2
g3
Ntp437
Rp438
(dp439
g7
I19
sb(lp440
(S'08:27'
p441
S'09:06'
p442
tp443
a(S'10:12'
p444
S'10:52'
p445
tp446
a(S'11:21'
p447
S'11:58'
p448
tp449
a(S'13:23'
p450
S'14:00'
p451
tp452
a(S'14:16'
p453
S'15:01'
p454
tp455
a(S'15:07'
p456
S'15:44'
p457
tp458
asg1
(g2
g3
Ntp459
Rp460
(dp461
g7
I20
sb(lp462
(S'10:10'
p463
S'10:48'
p464
tp465
a(S'10:49'
p466
S'11:27'
p467
tp468
a(S'11:34'
p469
S'12:11'
p470
tp471
a(S'13:29'
p472
S'14:16'
p473
tp474
a(S'14:31'
p475
S'15:17'
p476
tp477
as.