(dp0
ccopy_reg
_reconstructor
p1
(cmachine
ClosedMachine
p2
c__builtin__
object
p3
Ntp4
Rp5
(dp6
S'machine_id'
p7
I1
sb(lp8
(S'08:58'
p9
S'09:31'
p10
tp11
a(S'10:07'
p12
S'10:45'
p13
tp14
a(S'13:35'
p15
S'14:14'
p16
tp17
a(S'14:54'
p18
S'15:33'
p19
tp20
a(S'16:18'
p21
S'16:55'
p22
tp23
a(S'17:20'
p24
S'18:17'
p25
tp26
asg1
(cmachine
BrokenDownMachine
p27
g3
Ntp28
Rp29
(dp30
g7
I2
sb(lp31
S'Ute av drift'
p32
asg1
(g2
g3
Ntp33
Rp34
(dp35
g7
I3
sb(lp36
(S'08:13'
p37
S'08:51'
p38
tp39
a(S'09:15'
p40
S'09:52'
p41
tp42
a(S'12:47'
p43
S'13:43'
p44
tp45
a(S'14:42'
p46
S'15:31'
p47
tp48
a(S'16:49'
p49
S'17:41'
p50
tp51
a(S'18:21'
p52
S'19:15'
p53
tp54
a(S'19:36'
p55
Ntp56
asg1
(g2
g3
Ntp57
Rp58
(dp59
g7
I4
sb(lp60
(S'08:13'
p61
S'08:52'
p62
tp63
a(S'09:15'
p64
S'09:45'
p65
tp66
a(S'12:47'
p67
S'13:38'
p68
tp69
a(S'14:23'
p70
S'15:00'
p71
tp72
a(S'15:34'
p73
S'16:20'
p74
tp75
a(S'16:49'
p76
S'17:42'
p77
tp78
a(S'18:17'
p79
S'18:56'
p80
tp81
a(S'19:36'
p82
Ntp83
asg1
(g2
g3
Ntp84
Rp85
(dp86
g7
I5
sb(lp87
(S'08:13'
p88
S'08:50'
p89
tp90
a(S'09:15'
p91
S'09:54'
p92
tp93
a(S'14:16'
p94
S'14:49'
p95
tp96
a(S'15:51'
p97
S'16:29'
p98
tp99
a(S'16:49'
p100
S'17:36'
p101
tp102
a(S'18:22'
p103
S'19:01'
p104
tp105
a(S'19:36'
p106
Ntp107
asg1
(g2
g3
Ntp108
Rp109
(dp110
g7
I6
sb(lp111
(S'09:30'
p112
S'10:07'
p113
tp114
a(S'11:39'
p115
S'12:46'
p116
tp117
a(S'13:39'
p118
S'14:17'
p119
tp120
a(S'14:18'
p121
S'14:23'
p122
tp123
a(S'16:13'
p124
S'16:54'
p125
tp126
a(S'19:24'
p127
Ntp128
asg1
(g2
g3
Ntp129
Rp130
(dp131
g7
I7
sb(lp132
(S'10:58'
p133
S'11:35'
p134
tp135
a(S'16:13'
p136
S'16:46'
p137
tp138
a(S'18:22'
p139
S'19:01'
p140
tp141
asg1
(g2
g3
Ntp142
Rp143
(dp144
g7
I8
sb(lp145
(S'08:40'
p146
S'09:25'
p147
tp148
a(S'10:26'
p149
S'11:13'
p150
tp151
a(S'11:39'
p152
S'12:19'
p153
tp154
a(S'13:28'
p155
S'14:07'
p156
tp157
a(S'14:43'
p158
S'15:20'
p159
tp160
a(S'15:49'
p161
S'16:31'
p162
tp163
asg1
(g2
g3
Ntp164
Rp165
(dp166
g7
I9
sb(lp167
(S'09:29'
p168
S'10:17'
p169
tp170
a(S'10:26'
p171
S'11:12'
p172
tp173
a(S'11:39'
p174
S'12:30'
p175
tp176
a(S'13:28'
p177
S'14:21'
p178
tp179
a(S'14:44'
p180
S'15:23'
p181
tp182
a(S'15:49'
p183
S'16:31'
p184
tp185
a(S'16:46'
p186
S'17:34'
p187
tp188
a(S'18:24'
p189
S'19:03'
p190
tp191
asg1
(g2
g3
Ntp192
Rp193
(dp194
g7
I10
sb(lp195
(S'10:26'
p196
S'11:13'
p197
tp198
a(S'11:39'
p199
S'12:21'
p200
tp201
a(S'13:39'
p202
S'14:18'
p203
tp204
a(S'16:46'
p205
S'17:33'
p206
tp207
a(S'18:28'
p208
S'19:02'
p209
tp210
a(S'19:57'
p211
Ntp212
asg1
(g2
g3
Ntp213
Rp214
(dp215
g7
I11
sb(lp216
(S'10:26'
p217
S'11:25'
p218
tp219
a(S'13:16'
p220
S'13:52'
p221
tp222
a(S'14:54'
p223
S'15:46'
p224
tp225
a(S'16:59'
p226
S'17:44'
p227
tp228
a(S'18:28'
p229
S'19:05'
p230
tp231
asg1
(g2
g3
Ntp232
Rp233
(dp234
g7
I12
sb(lp235
(S'10:54'
p236
S'11:33'
p237
tp238
a(S'13:16'
p239
S'13:54'
p240
tp241
a(S'14:23'
p242
S'15:09'
p243
tp244
a(S'15:55'
p245
S'16:34'
p246
tp247
a(S'16:45'
p248
S'17:29'
p249
tp250
a(S'18:24'
p251
S'18:30'
p252
tp253
a(S'19:34'
p254
Ntp255
asg1
(g2
g3
Ntp256
Rp257
(dp258
g7
I13
sb(lp259
(S'13:40'
p260
S'14:10'
p261
tp262
a(S'16:02'
p263
S'16:35'
p264
tp265
a(S'17:07'
p266
S'17:56'
p267
tp268
a(S'18:29'
p269
S'19:02'
p270
tp271
asg1
(g2
g3
Ntp272
Rp273
(dp274
g7
I14
sb(lp275
(S'09:33'
p276
S'10:10'
p277
tp278
a(S'12:47'
p279
S'13:33'
p280
tp281
a(S'14:23'
p282
S'15:01'
p283
tp284
a(S'15:59'
p285
S'16:29'
p286
tp287
a(S'18:29'
p288
S'19:02'
p289
tp290
asg1
(g2
g3
Ntp291
Rp292
(dp293
g7
I15
sb(lp294
(S'09:33'
p295
S'10:12'
p296
tp297
a(S'12:47'
p298
S'13:34'
p299
tp300
a(S'14:24'
p301
S'15:21'
p302
tp303
a(S'15:52'
p304
S'16:24'
p305
tp306
asg1
(g2
g3
Ntp307
Rp308
(dp309
g7
I16
sb(lp310
sg1
(g2
g3
Ntp311
Rp312
(dp313
g7
I17
sb(lp314
(S'08:38'
p315
S'09:24'
p316
tp317
a(S'10:33'
p318
S'11:12'
p319
tp320
a(S'13:33'
p321
S'14:09'
p322
tp323
a(S'15:52'
p324
S'16:31'
p325
tp326
a(S'19:58'
p327
Ntp328
asg1
(g2
g3
Ntp329
Rp330
(dp331
g7
I18
sb(lp332
(S'08:37'
p333
S'09:15'
p334
tp335
a(S'10:33'
p336
S'11:11'
p337
tp338
a(S'13:23'
p339
S'14:01'
p340
tp341
a(S'14:56'
p342
S'15:46'
p343
tp344
a(S'19:58'
p345
Ntp346
asg1
(g2
g3
Ntp347
Rp348
(dp349
g7
I19
sb(lp350
(S'10:56'
p351
S'11:47'
p352
tp353
a(S'16:46'
p354
S'17:23'
p355
tp356
a(S'18:48'
p357
S'19:38'
p358
tp359
asg1
(g2
g3
Ntp360
Rp361
(dp362
g7
I20
sb(lp363
(S'14:21'
p364
S'15:05'
p365
tp366
a(S'16:46'
p367
S'17:30'
p368
tp369
as.