(dp0
ccopy_reg
_reconstructor
p1
(cmachine
ClosedMachine
p2
c__builtin__
object
p3
Ntp4
Rp5
(dp6
S'machine_id'
p7
I1
sb(lp8
(S'10:10'
p9
S'10:49'
p10
tp11
a(S'12:22'
p12
S'13:15'
p13
tp14
a(S'15:38'
p15
S'16:18'
p16
tp17
a(S'16:34'
p18
S'17:04'
p19
tp20
a(S'17:25'
p21
S'18:12'
p22
tp23
a(S'18:29'
p24
S'19:08'
p25
tp26
asg1
(g2
g3
Ntp27
Rp28
(dp29
g7
I2
sb(lp30
(S'07:07'
p31
S'07:55'
p32
tp33
a(S'11:46'
p34
S'12:25'
p35
tp36
a(S'13:09'
p37
S'14:01'
p38
tp39
a(S'15:39'
p40
S'16:18'
p41
tp42
a(S'16:35'
p43
S'17:20'
p44
tp45
a(S'17:25'
p46
S'18:05'
p47
tp48
a(S'18:37'
p49
S'19:16'
p50
tp51
asg1
(g2
g3
Ntp52
Rp53
(dp54
g7
I3
sb(lp55
(S'07:02'
p56
S'07:49'
p57
tp58
a(S'11:47'
p59
S'12:26'
p60
tp61
a(S'13:09'
p62
S'13:46'
p63
tp64
a(S'15:42'
p65
S'16:27'
p66
tp67
a(S'16:50'
p68
S'17:28'
p69
tp70
asg1
(g2
g3
Ntp71
Rp72
(dp73
g7
I4
sb(lp74
(S'07:02'
p75
S'07:40'
p76
tp77
a(S'11:47'
p78
S'12:26'
p79
tp80
a(S'13:09'
p81
S'13:42'
p82
tp83
a(S'16:12'
p84
S'16:50'
p85
tp86
a(S'18:12'
p87
S'18:49'
p88
tp89
asg1
(g2
g3
Ntp90
Rp91
(dp92
g7
I5
sb(lp93
(S'06:07'
p94
S'06:46'
p95
tp96
a(S'07:02'
p97
S'07:49'
p98
tp99
a(S'11:47'
p100
S'12:26'
p101
tp102
a(S'13:09'
p103
S'13:42'
p104
tp105
a(S'14:32'
p106
S'15:10'
p107
tp108
a(S'18:11'
p109
S'19:03'
p110
tp111
asg1
(g2
g3
Ntp112
Rp113
(dp114
g7
I6
sb(lp115
(S'16:38'
p116
S'17:17'
p117
tp118
a(S'19:13'
p119
S'19:52'
p120
tp121
asg1
(g2
g3
Ntp122
Rp123
(dp124
g7
I7
sb(lp125
(S'08:01'
p126
S'08:38'
p127
tp128
a(S'10:52'
p129
S'11:31'
p130
tp131
a(S'13:55'
p132
S'14:33'
p133
tp134
a(S'17:01'
p135
S'18:30'
p136
tp137
a(S'18:39'
p138
S'19:12'
p139
tp140
asg1
(g2
g3
Ntp141
Rp142
(dp143
g7
I8
sb(lp144
(S'09:50'
p145
S'10:29'
p146
tp147
a(S'15:25'
p148
S'16:02'
p149
tp150
a(S'17:30'
p151
S'18:16'
p152
tp153
a(S'18:42'
p154
S'19:19'
p155
tp156
asg1
(g2
g3
Ntp157
Rp158
(dp159
g7
I9
sb(lp160
(S'09:50'
p161
S'10:28'
p162
tp163
a(S'15:26'
p164
S'16:22'
p165
tp166
a(S'18:42'
p167
S'19:15'
p168
tp169
asg1
(g2
g3
Ntp170
Rp171
(dp172
g7
I10
sb(lp173
(S'09:50'
p174
S'10:29'
p175
tp176
a(S'15:44'
p177
S'16:14'
p178
tp179
a(S'16:42'
p180
S'17:21'
p181
tp182
a(S'18:25'
p183
S'19:02'
p184
tp185
a(S'19:30'
p186
Ntp187
asg1
(g2
g3
Ntp188
Rp189
(dp190
g7
I11
sb(lp191
(S'07:51'
p192
S'08:31'
p193
tp194
a(S'08:35'
p195
S'09:12'
p196
tp197
a(S'09:35'
p198
S'10:33'
p199
tp200
a(S'11:14'
p201
S'11:44'
p202
tp203
a(S'13:53'
p204
S'14:31'
p205
tp206
a(S'15:44'
p207
S'16:31'
p208
tp209
a(S'16:36'
p210
S'17:13'
p211
tp212
a(S'17:31'
p213
S'18:09'
p214
tp215
a(S'18:17'
p216
S'18:50'
p217
tp218
a(S'19:30'
p219
Ntp220
asg1
(g2
g3
Ntp221
Rp222
(dp223
g7
I12
sb(lp224
(S'06:51'
p225
S'07:29'
p226
tp227
a(S'09:35'
p228
S'10:20'
p229
tp230
a(S'11:13'
p231
S'11:53'
p232
tp233
a(S'13:53'
p234
S'14:33'
p235
tp236
a(S'15:44'
p237
S'16:23'
p238
tp239
a(S'16:42'
p240
S'17:29'
p241
tp242
a(S'18:37'
p243
S'19:16'
p244
tp245
asg1
(g2
g3
Ntp246
Rp247
(dp248
g7
I13
sb(lp249
(S'08:00'
p250
S'08:40'
p251
tp252
a(S'09:59'
p253
S'11:25'
p254
tp255
a(S'13:54'
p256
S'14:33'
p257
tp258
a(S'16:16'
p259
S'16:55'
p260
tp261
a(S'18:22'
p262
S'19:01'
p263
tp264
asg1
(g2
g3
Ntp265
Rp266
(dp267
g7
I14
sb(lp268
(S'07:52'
p269
S'08:31'
p270
tp271
a(S'09:21'
p272
S'10:28'
p273
tp274
a(S'11:13'
p275
S'11:53'
p276
tp277
a(S'13:31'
p278
S'14:17'
p279
tp280
a(S'16:16'
p281
S'16:55'
p282
tp283
a(S'18:48'
p284
S'19:21'
p285
tp286
asg1
(cmachine
BrokenDownMachine
p287
g3
Ntp288
Rp289
(dp290
g7
I15
sb(lp291
S'Ute av drift'
p292
asg1
(g2
g3
Ntp293
Rp294
(dp295
g7
I16
sb(lp296
(S'06:47'
p297
S'07:26'
p298
tp299
a(S'09:19'
p300
S'09:49'
p301
tp302
a(S'11:13'
p303
S'11:51'
p304
tp305
a(S'13:30'
p306
S'14:17'
p307
tp308
a(S'16:17'
p309
S'16:56'
p310
tp311
a(S'18:43'
p312
S'19:21'
p313
tp314
asg1
(g2
g3
Ntp315
Rp316
(dp317
g7
I17
sb(lp318
(S'06:47'
p319
S'07:27'
p320
tp321
a(S'09:19'
p322
S'10:05'
p323
tp324
a(S'11:13'
p325
S'11:51'
p326
tp327
a(S'13:11'
p328
S'13:50'
p329
tp330
a(S'16:18'
p331
S'16:57'
p332
tp333
a(S'18:10'
p334
S'18:48'
p335
tp336
asg1
(g2
g3
Ntp337
Rp338
(dp339
g7
I18
sb(lp340
(S'06:47'
p341
S'07:25'
p342
tp343
a(S'09:59'
p344
S'11:07'
p345
tp346
a(S'13:11'
p347
S'13:50'
p348
tp349
a(S'17:01'
p350
S'18:10'
p351
tp352
a(S'18:40'
p353
S'19:18'
p354
tp355
asg1
(g2
g3
Ntp356
Rp357
(dp358
g7
I19
sb(lp359
(S'10:01'
p360
S'11:28'
p361
tp362
a(S'16:39'
p363
S'17:31'
p364
tp365
asg1
(g2
g3
Ntp366
Rp367
(dp368
g7
I20
sb(lp369
(S'17:00'
p370
S'18:11'
p371
tp372
a(S'18:39'
p373
S'18:40'
p374
tp375
a(S'18:52'
p376
S'19:31'
p377
tp378
as.