(dp0
ccopy_reg
_reconstructor
p1
(cmachine
ClosedMachine
p2
c__builtin__
object
p3
Ntp4
Rp5
(dp6
S'machine_id'
p7
I1
sb(lp8
(S'11:19'
p9
S'11:56'
p10
tp11
a(S'14:05'
p12
S'14:43'
p13
tp14
a(S'15:27'
p15
S'16:17'
p16
tp17
a(S'16:27'
p18
S'17:01'
p19
tp20
a(S'17:43'
p21
S'18:20'
p22
tp23
a(S'19:50'
p24
Ntp25
asg1
(g2
g3
Ntp26
Rp27
(dp28
g7
I2
sb(lp29
(S'11:08'
p30
S'11:45'
p31
tp32
a(S'13:53'
p33
S'13:58'
p34
tp35
a(S'14:35'
p36
S'15:14'
p37
tp38
a(S'15:27'
p39
S'16:06'
p40
tp41
a(S'16:07'
p42
S'16:45'
p43
tp44
a(S'16:56'
p45
S'17:35'
p46
tp47
a(S'17:43'
p48
S'17:48'
p49
tp50
asg1
(g2
g3
Ntp51
Rp52
(dp53
g7
I3
sb(lp54
(S'11:08'
p55
S'11:48'
p56
tp57
a(S'13:53'
p58
S'14:32'
p59
tp60
a(S'14:47'
p61
S'15:29'
p62
tp63
a(S'15:58'
p64
S'16:37'
p65
tp66
a(S'16:56'
p67
S'17:34'
p68
tp69
a(S'17:43'
p70
S'18:20'
p71
tp72
asg1
(g2
g3
Ntp73
Rp74
(dp75
g7
I4
sb(lp76
(S'11:08'
p77
S'11:47'
p78
tp79
a(S'13:49'
p80
S'14:36'
p81
tp82
a(S'15:27'
p83
S'16:11'
p84
tp85
a(S'16:27'
p86
S'17:09'
p87
tp88
a(S'17:48'
p89
S'18:37'
p90
tp91
a(S'18:47'
p92
S'19:25'
p93
tp94
asg1
(g2
g3
Ntp95
Rp96
(dp97
g7
I5
sb(lp98
(S'11:08'
p99
S'11:45'
p100
tp101
a(S'13:50'
p102
S'14:20'
p103
tp104
a(S'15:35'
p105
S'16:14'
p106
tp107
a(S'16:27'
p108
S'17:22'
p109
tp110
a(S'17:49'
p111
S'18:28'
p112
tp113
a(S'18:47'
p114
S'19:26'
p115
tp116
asg1
(g2
g3
Ntp117
Rp118
(dp119
g7
I6
sb(lp120
(S'14:15'
p121
S'14:55'
p122
tp123
a(S'15:39'
p124
S'16:49'
p125
tp126
a(S'17:03'
p127
S'17:41'
p128
tp129
asg1
(g2
g3
Ntp130
Rp131
(dp132
g7
I7
sb(lp133
(S'11:42'
p134
S'12:21'
p135
tp136
a(S'14:25'
p137
S'15:12'
p138
tp139
a(S'16:45'
p140
S'17:09'
p141
tp142
asg1
(g2
g3
Ntp143
Rp144
(dp145
g7
I8
sb(lp146
(S'11:45'
p147
S'12:24'
p148
tp149
a(S'14:27'
p150
S'15:06'
p151
tp152
a(S'15:24'
p153
S'17:11'
p154
tp155
a(S'17:51'
p156
S'18:30'
p157
tp158
asg1
(g2
g3
Ntp159
Rp160
(dp161
g7
I9
sb(lp162
(S'11:45'
p163
S'12:22'
p164
tp165
a(S'14:27'
p166
S'15:06'
p167
tp168
a(S'15:24'
p169
S'16:45'
p170
tp171
a(S'17:51'
p172
S'18:28'
p173
tp174
asg1
(g2
g3
Ntp175
Rp176
(dp177
g7
I10
sb(lp178
(S'09:09'
p179
S'09:48'
p180
tp181
a(S'11:45'
p182
S'12:22'
p183
tp184
a(S'14:15'
p185
S'14:53'
p186
tp187
a(S'17:51'
p188
S'18:30'
p189
tp190
asg1
(g2
g3
Ntp191
Rp192
(dp193
g7
I11
sb(lp194
(S'14:05'
p195
S'14:42'
p196
tp197
a(S'17:36'
p198
S'18:09'
p199
tp200
asg1
(g2
g3
Ntp201
Rp202
(dp203
g7
I12
sb(lp204
(S'11:21'
p205
S'11:50'
p206
tp207
a(S'13:14'
p208
S'14:01'
p209
tp210
a(S'15:05'
p211
S'16:45'
p212
tp213
a(S'17:36'
p214
S'18:15'
p215
tp216
asg1
(g2
g3
Ntp217
Rp218
(dp219
g7
I13
sb(lp220
(S'11:52'
p221
S'12:31'
p222
tp223
a(S'13:14'
p224
S'13:55'
p225
tp226
a(S'18:06'
p227
S'18:44'
p228
tp229
asg1
(g2
g3
Ntp230
Rp231
(dp232
g7
I14
sb(lp233
(S'11:52'
p234
S'12:29'
p235
tp236
a(S'13:14'
p237
S'14:01'
p238
tp239
a(S'14:48'
p240
S'16:45'
p241
tp242
asg1
(cmachine
BrokenDownMachine
p243
g3
Ntp244
Rp245
(dp246
g7
I15
sb(lp247
S'Ute av drift'
p248
asg1
(g2
g3
Ntp249
Rp250
(dp251
g7
I16
sb(lp252
(S'11:17'
p253
S'12:03'
p254
tp255
a(S'14:14'
p256
S'14:53'
p257
tp258
a(S'17:05'
p259
S'17:43'
p260
tp261
a(S'19:28'
p262
Ntp263
asg1
(g2
g3
Ntp264
Rp265
(dp266
g7
I17
sb(lp267
(S'10:22'
p268
S'10:55'
p269
tp270
a(S'11:16'
p271
S'12:01'
p272
tp273
a(S'13:54'
p274
S'14:31'
p275
tp276
a(S'15:24'
p277
S'16:45'
p278
tp279
a(S'17:05'
p280
S'17:42'
p281
tp282
a(S'19:28'
p283
Ntp284
asg1
(g2
g3
Ntp285
Rp286
(dp287
g7
I18
sb(lp288
(S'08:28'
p289
S'09:05'
p290
tp291
a(S'09:22'
p292
S'10:01'
p293
tp294
a(S'10:22'
p295
S'11:00'
p296
tp297
a(S'11:16'
p298
S'12:10'
p299
tp300
a(S'14:15'
p301
S'14:56'
p302
tp303
a(S'17:05'
p304
S'18:05'
p305
tp306
a(S'19:28'
p307
Ntp308
asg1
(g2
g3
Ntp309
Rp310
(dp311
g7
I19
sb(lp312
(S'12:03'
p313
S'12:40'
p314
tp315
a(S'14:14'
p316
S'14:53'
p317
tp318
a(S'18:07'
p319
S'18:46'
p320
tp321
asg1
(g2
g3
Ntp322
Rp323
(dp324
g7
I20
sb(lp325
(S'12:00'
p326
S'12:30'
p327
tp328
a(S'13:21'
p329
S'14:13'
p330
tp331
a(S'14:48'
p332
S'15:26'
p333
tp334
a(S'16:09'
p335
S'16:47'
p336
tp337
as.