(dp0
ccopy_reg
_reconstructor
p1
(cmachine
ClosedMachine
p2
c__builtin__
object
p3
Ntp4
Rp5
(dp6
S'machine_id'
p7
I1
sb(lp8
(S'07:31'
p9
S'08:09'
p10
tp11
a(S'09:32'
p12
S'10:10'
p13
tp14
a(S'11:33'
p15
S'12:06'
p16
tp17
a(S'13:26'
p18
S'14:23'
p19
tp20
a(S'16:35'
p21
S'17:05'
p22
tp23
a(S'18:04'
p24
S'18:42'
p25
tp26
a(S'18:47'
p27
S'19:45'
p28
tp29
asg1
(cmachine
BrokenDownMachine
p30
g3
Ntp31
Rp32
(dp33
g7
I2
sb(lp34
S'Ute av drift'
p35
a(S'09:32'
p36
S'10:10'
p37
tp38
a(S'12:23'
p39
S'13:10'
p40
tp41
a(S'16:41'
p42
S'17:20'
p43
tp44
a(S'18:47'
p45
S'19:32'
p46
tp47
asg1
(g2
g3
Ntp48
Rp49
(dp50
g7
I3
sb(lp51
(S'07:31'
p52
S'08:10'
p53
tp54
a(S'09:27'
p55
S'10:14'
p56
tp57
a(S'11:33'
p58
S'12:23'
p59
tp60
a(S'13:58'
p61
S'14:44'
p62
tp63
a(S'16:41'
p64
S'17:20'
p65
tp66
a(S'18:04'
p67
S'18:43'
p68
tp69
a(S'18:59'
p70
S'19:37'
p71
tp72
a(S'19:46'
p73
Ntp74
asg1
(g2
g3
Ntp75
Rp76
(dp77
g7
I4
sb(lp78
(S'07:28'
p79
S'08:17'
p80
tp81
a(S'09:27'
p82
S'10:13'
p83
tp84
a(S'12:06'
p85
S'12:44'
p86
tp87
a(S'13:58'
p88
S'14:49'
p89
tp90
a(S'16:03'
p91
S'16:42'
p92
tp93
a(S'17:25'
p94
S'18:02'
p95
tp96
a(S'19:17'
p97
S'19:47'
p98
tp99
a(S'19:56'
p100
Ntp101
asg1
(g2
g3
Ntp102
Rp103
(dp104
g7
I5
sb(lp105
(S'12:06'
p106
S'12:44'
p107
tp108
a(S'15:00'
p109
S'15:45'
p110
tp111
a(S'16:03'
p112
S'16:51'
p113
tp114
a(S'19:15'
p115
S'19:53'
p116
tp117
a(S'19:56'
p118
Ntp119
asg1
(g2
g3
Ntp120
Rp121
(dp122
g7
I6
sb(lp123
(S'09:39'
p124
S'10:13'
p125
tp126
a(S'12:38'
p127
S'13:17'
p128
tp129
a(S'19:38'
p130
Ntp131
asg1
(g2
g3
Ntp132
Rp133
(dp134
g7
I7
sb(lp135
(S'09:39'
p136
S'10:29'
p137
tp138
a(S'16:44'
p139
S'17:23'
p140
tp141
a(S'18:47'
p142
S'19:35'
p143
tp144
asg1
(g2
g3
Ntp145
Rp146
(dp147
g7
I8
sb(lp148
(S'09:39'
p149
S'10:18'
p150
tp151
a(S'10:59'
p152
S'11:37'
p153
tp154
a(S'14:11'
p155
S'14:48'
p156
tp157
a(S'16:44'
p158
S'17:14'
p159
tp160
a(S'17:51'
p161
S'18:29'
p162
tp163
a(S'19:01'
p164
S'19:38'
p165
tp166
a(S'19:42'
p167
Ntp168
asg1
(g2
g3
Ntp169
Rp170
(dp171
g7
I9
sb(lp172
(S'09:39'
p173
S'10:18'
p174
tp175
a(S'10:55'
p176
S'11:45'
p177
tp178
a(S'14:10'
p179
S'14:50'
p180
tp181
a(S'16:47'
p182
S'17:40'
p183
tp184
a(S'17:51'
p185
S'18:31'
p186
tp187
a(S'19:01'
p188
S'19:39'
p189
tp190
a(S'19:44'
p191
S'19:49'
p192
tp193
asg1
(g2
g3
Ntp194
Rp195
(dp196
g7
I10
sb(lp197
(S'09:09'
p198
S'09:47'
p199
tp200
a(S'10:55'
p201
S'11:25'
p202
tp203
a(S'14:23'
p204
S'15:03'
p205
tp206
a(S'16:53'
p207
S'17:32'
p208
tp209
a(S'17:52'
p210
S'18:29'
p211
tp212
a(S'19:39'
p213
Ntp214
asg1
(g2
g3
Ntp215
Rp216
(dp217
g7
I11
sb(lp218
(S'09:10'
p219
S'09:49'
p220
tp221
a(S'10:55'
p222
S'11:25'
p223
tp224
a(S'16:45'
p225
S'17:24'
p226
tp227
a(S'17:52'
p228
S'18:30'
p229
tp230
a(S'19:39'
p231
Ntp232
asg1
(g2
g3
Ntp233
Rp234
(dp235
g7
I12
sb(lp236
(S'09:10'
p237
S'09:49'
p238
tp239
a(S'10:56'
p240
S'11:33'
p241
tp242
a(S'16:45'
p243
S'17:23'
p244
tp245
a(S'19:54'
p246
Ntp247
asg1
(g2
g3
Ntp248
Rp249
(dp250
g7
I13
sb(lp251
(S'08:44'
p252
S'09:23'
p253
tp254
a(S'11:06'
p255
S'12:02'
p256
tp257
a(S'19:58'
p258
Ntp259
asg1
(g2
g3
Ntp260
Rp261
(dp262
g7
I14
sb(lp263
(S'08:44'
p264
S'09:14'
p265
tp266
a(S'11:06'
p267
S'11:52'
p268
tp269
a(S'16:46'
p270
S'17:24'
p271
tp272
a(S'19:37'
p273
Ntp274
asg1
(g2
g3
Ntp275
Rp276
(dp277
g7
I15
sb(lp278
(S'08:44'
p279
S'09:25'
p280
tp281
a(S'14:02'
p282
S'14:34'
p283
tp284
a(S'16:46'
p285
S'17:17'
p286
tp287
a(S'18:08'
p288
S'18:48'
p289
tp290
a(S'19:54'
p291
Ntp292
asg1
(g2
g3
Ntp293
Rp294
(dp295
g7
I16
sb(lp296
(S'11:17'
p297
S'12:04'
p298
tp299
a(S'19:58'
p300
Ntp301
asg1
(g2
g3
Ntp302
Rp303
(dp304
g7
I17
sb(lp305
(S'09:46'
p306
S'10:28'
p307
tp308
a(S'12:22'
p309
S'12:53'
p310
tp311
a(S'14:01'
p312
S'14:40'
p313
tp314
a(S'15:52'
p315
S'16:31'
p316
tp317
a(S'19:37'
p318
Ntp319
asg1
(g2
g3
Ntp320
Rp321
(dp322
g7
I18
sb(lp323
(S'09:43'
p324
S'10:22'
p325
tp326
a(S'12:23'
p327
S'13:10'
p328
tp329
a(S'13:59'
p330
S'14:36'
p331
tp332
a(S'15:53'
p333
S'16:31'
p334
tp335
a(S'18:59'
p336
S'19:04'
p337
tp338
a(S'19:54'
p339
Ntp340
asg1
(g2
g3
Ntp341
Rp342
(dp343
g7
I19
sb(lp344
(S'09:39'
p345
S'10:12'
p346
tp347
a(S'16:44'
p348
S'17:22'
p349
tp350
a(S'19:37'
p351
Ntp352
asg1
(g2
g3
Ntp353
Rp354
(dp355
g7
I20
sb(lp356
(S'09:37'
p357
S'10:14'
p358
tp359
a(S'16:40'
p360
S'17:19'
p361
tp362
a(S'18:48'
p363
S'19:26'
p364
tp365
as.