(dp0
ccopy_reg
_reconstructor
p1
(cmachine
ClosedMachine
p2
c__builtin__
object
p3
Ntp4
Rp5
(dp6
S'machine_id'
p7
I1
sb(lp8
(S'12:31'
p9
S'13:04'
p10
tp11
a(S'13:33'
p12
S'14:24'
p13
tp14
a(S'16:58'
p15
S'17:37'
p16
tp17
a(S'18:36'
p18
S'19:14'
p19
tp20
asg1
(g2
g3
Ntp21
Rp22
(dp23
g7
I2
sb(lp24
(S'12:36'
p25
S'13:09'
p26
tp27
a(S'17:19'
p28
S'17:49'
p29
tp30
a(S'18:36'
p31
S'19:15'
p32
tp33
asg1
(g2
g3
Ntp34
Rp35
(dp36
g7
I3
sb(lp37
(S'08:33'
p38
S'09:11'
p39
tp40
a(S'11:30'
p41
S'12:05'
p42
tp43
a(S'12:35'
p44
S'13:09'
p45
tp46
a(S'19:11'
p47
S'19:58'
p48
tp49
asg1
(g2
g3
Ntp50
Rp51
(dp52
g7
I4
sb(lp53
(S'08:33'
p54
S'09:12'
p55
tp56
a(S'11:31'
p57
S'12:01'
p58
tp59
a(S'12:35'
p60
S'13:09'
p61
tp62
a(S'17:50'
p63
S'18:29'
p64
tp65
a(S'19:11'
p66
S'19:48'
p67
tp68
asg1
(g2
g3
Ntp69
Rp70
(dp71
g7
I5
sb(lp72
(S'08:33'
p73
S'09:13'
p74
tp75
a(S'10:08'
p76
S'10:46'
p77
tp78
a(S'11:31'
p79
S'12:08'
p80
tp81
a(S'12:35'
p82
S'13:26'
p83
tp84
a(S'17:50'
p85
S'18:30'
p86
tp87
a(S'19:09'
p88
S'19:49'
p89
tp90
asg1
(g2
g3
Ntp91
Rp92
(dp93
g7
I6
sb(lp94
(S'11:26'
p95
S'12:06'
p96
tp97
a(S'13:20'
p98
S'13:57'
p99
tp100
a(S'15:01'
p101
S'15:31'
p102
tp103
a(S'16:34'
p104
S'17:24'
p105
tp106
a(S'18:29'
p107
S'19:20'
p108
tp109
asg1
(g2
g3
Ntp110
Rp111
(dp112
g7
I7
sb(lp113
(S'09:28'
p114
S'10:06'
p115
tp116
a(S'10:28'
p117
S'11:06'
p118
tp119
a(S'11:38'
p120
S'12:25'
p121
tp122
a(S'13:19'
p123
S'13:57'
p124
tp125
a(S'15:01'
p126
S'15:39'
p127
tp128
a(S'19:09'
p129
S'19:47'
p130
tp131
asg1
(g2
g3
Ntp132
Rp133
(dp134
g7
I8
sb(lp135
(S'07:59'
p136
S'08:46'
p137
tp138
a(S'10:45'
p139
S'11:24'
p140
tp141
a(S'13:26'
p142
S'14:17'
p143
tp144
a(S'17:55'
p145
S'18:34'
p146
tp147
a(S'19:00'
p148
S'19:40'
p149
tp150
asg1
(g2
g3
Ntp151
Rp152
(dp153
g7
I9
sb(lp154
(S'07:59'
p155
S'08:46'
p156
tp157
a(S'11:00'
p158
S'11:39'
p159
tp160
a(S'12:25'
p161
S'12:55'
p162
tp163
a(S'17:55'
p164
S'18:42'
p165
tp166
a(S'19:00'
p167
S'19:40'
p168
tp169
asg1
(g2
g3
Ntp170
Rp171
(dp172
g7
I10
sb(lp173
(S'11:00'
p174
S'11:38'
p175
tp176
a(S'12:25'
p177
S'12:59'
p178
tp179
a(S'14:17'
p180
S'15:04'
p181
tp182
a(S'16:46'
p183
S'17:25'
p184
tp185
asg1
(g2
g3
Ntp186
Rp187
(dp188
g7
I11
sb(lp189
(S'11:00'
p190
S'11:34'
p191
tp192
a(S'12:25'
p193
S'13:05'
p194
tp195
a(S'14:17'
p196
S'14:54'
p197
tp198
a(S'18:29'
p199
S'19:06'
p200
tp201
asg1
(g2
g3
Ntp202
Rp203
(dp204
g7
I12
sb(lp205
(S'12:26'
p206
S'12:56'
p207
tp208
a(S'14:17'
p209
S'14:56'
p210
tp211
a(S'18:29'
p212
S'19:16'
p213
tp214
asg1
(g2
g3
Ntp215
Rp216
(dp217
g7
I13
sb(lp218
(S'14:17'
p219
S'14:57'
p220
tp221
a(S'15:48'
p222
S'16:35'
p223
tp224
a(S'18:27'
p225
S'19:06'
p226
tp227
asg1
(g2
g3
Ntp228
Rp229
(dp230
g7
I14
sb(lp231
(S'11:43'
p232
S'12:17'
p233
tp234
a(S'13:47'
p235
S'14:25'
p236
tp237
a(S'15:48'
p238
S'16:28'
p239
tp240
a(S'18:27'
p241
S'19:05'
p242
tp243
asg1
(g2
g3
Ntp244
Rp245
(dp246
g7
I15
sb(lp247
(S'11:43'
p248
S'12:24'
p249
tp250
a(S'13:47'
p251
S'14:26'
p252
tp253
a(S'16:46'
p254
S'17:25'
p255
tp256
asg1
(g2
g3
Ntp257
Rp258
(dp259
g7
I16
sb(lp260
(S'13:47'
p261
S'14:25'
p262
tp263
a(S'16:46'
p264
S'17:24'
p265
tp266
asg1
(g2
g3
Ntp267
Rp268
(dp269
g7
I17
sb(lp270
(S'11:24'
p271
S'12:01'
p272
tp273
a(S'13:35'
p274
S'14:13'
p275
tp276
a(S'16:46'
p277
S'17:25'
p278
tp279
asg1
(g2
g3
Ntp280
Rp281
(dp282
g7
I18
sb(lp283
(S'10:43'
p284
S'11:25'
p285
tp286
a(S'13:16'
p287
S'13:54'
p288
tp289
a(S'14:48'
p290
S'15:25'
p291
tp292
a(S'17:55'
p293
S'18:33'
p294
tp295
a(S'19:00'
p296
S'19:39'
p297
tp298
asg1
(g2
g3
Ntp299
Rp300
(dp301
g7
I19
sb(lp302
(S'11:38'
p303
S'12:16'
p304
tp305
a(S'14:04'
p306
S'14:42'
p307
tp308
a(S'14:58'
p309
S'15:35'
p310
tp311
a(S'18:07'
p312
S'18:43'
p313
tp314
a(S'19:11'
p315
S'19:56'
p316
tp317
asg1
(g2
g3
Ntp318
Rp319
(dp320
g7
I20
sb(lp321
(S'11:37'
p322
S'12:35'
p323
tp324
a(S'18:27'
p325
S'19:21'
p326
tp327
as.