(dp0
ccopy_reg
_reconstructor
p1
(cmachine
ClosedMachine
p2
c__builtin__
object
p3
Ntp4
Rp5
(dp6
S'machine_id'
p7
I1
sb(lp8
(S'06:30'
p9
S'07:18'
p10
tp11
a(S'12:37'
p12
S'13:16'
p13
tp14
a(S'15:25'
p15
S'16:10'
p16
tp17
a(S'17:17'
p18
S'17:57'
p19
tp20
asg1
(g2
g3
Ntp21
Rp22
(dp23
g7
I2
sb(lp24
(S'17:21'
p25
S'17:58'
p26
tp27
asg1
(g2
g3
Ntp28
Rp29
(dp30
g7
I3
sb(lp31
(S'17:21'
p32
S'17:26'
p33
tp34
asg1
(g2
g3
Ntp35
Rp36
(dp37
g7
I4
sb(lp38
(S'06:30'
p39
S'07:09'
p40
tp41
a(S'12:12'
p42
S'12:57'
p43
tp44
a(S'13:49'
p45
S'15:15'
p46
tp47
a(S'16:53'
p48
S'17:26'
p49
tp50
a(S'18:08'
p51
S'18:55'
p52
tp53
a(S'19:45'
p54
Ntp55
asg1
(g2
g3
Ntp56
Rp57
(dp58
g7
I5
sb(lp59
(S'06:30'
p60
S'07:09'
p61
tp62
a(S'12:12'
p63
S'12:51'
p64
tp65
a(S'14:06'
p66
S'15:15'
p67
tp68
a(S'15:25'
p69
S'16:04'
p70
tp71
a(S'17:17'
p72
S'18:03'
p73
tp74
a(S'19:11'
p75
S'19:51'
p76
tp77
asg1
(g2
g3
Ntp78
Rp79
(dp80
g7
I6
sb(lp81
(S'06:01'
p82
S'06:40'
p83
tp84
a(S'14:11'
p85
S'14:41'
p86
tp87
a(S'16:53'
p88
S'17:26'
p89
tp90
a(S'18:15'
p91
S'18:49'
p92
tp93
asg1
(g2
g3
Ntp94
Rp95
(dp96
g7
I7
sb(lp97
(S'11:31'
p98
S'12:43'
p99
tp100
a(S'14:10'
p101
S'14:49'
p102
tp103
a(S'16:53'
p104
S'17:26'
p105
tp106
a(S'18:04'
p107
S'18:43'
p108
tp109
asg1
(g2
g3
Ntp110
Rp111
(dp112
g7
I8
sb(lp113
(S'09:22'
p114
S'09:59'
p115
tp116
a(S'12:12'
p117
S'13:01'
p118
tp119
a(S'13:58'
p120
S'14:36'
p121
tp122
a(S'14:50'
p123
S'15:30'
p124
tp125
a(S'16:58'
p126
S'17:50'
p127
tp128
asg1
(g2
g3
Ntp129
Rp130
(dp131
g7
I9
sb(lp132
(S'09:22'
p133
S'10:00'
p134
tp135
a(S'12:12'
p136
S'12:51'
p137
tp138
a(S'14:50'
p139
S'15:29'
p140
tp141
a(S'17:30'
p142
S'18:09'
p143
tp144
asg1
(g2
g3
Ntp145
Rp146
(dp147
g7
I10
sb(lp148
(S'09:22'
p149
S'10:00'
p150
tp151
a(S'12:12'
p152
S'13:12'
p153
tp154
a(S'15:22'
p155
S'16:00'
p156
tp157
a(S'16:13'
p158
S'16:47'
p159
tp160
a(S'17:11'
p161
S'17:44'
p162
tp163
a(S'19:39'
p164
Ntp165
asg1
(g2
g3
Ntp166
Rp167
(dp168
g7
I11
sb(lp169
(S'10:19'
p170
S'10:57'
p171
tp172
a(S'14:01'
p173
S'14:40'
p174
tp175
a(S'15:23'
p176
S'16:00'
p177
tp178
a(S'16:13'
p179
S'16:47'
p180
tp181
a(S'19:39'
p182
Ntp183
asg1
(g2
g3
Ntp184
Rp185
(dp186
g7
I12
sb(lp187
(S'14:01'
p188
S'14:38'
p189
tp190
a(S'15:36'
p191
S'16:14'
p192
tp193
a(S'17:18'
p194
S'17:55'
p195
tp196
a(S'19:40'
p197
Ntp198
asg1
(g2
g3
Ntp199
Rp200
(dp201
g7
I13
sb(lp202
(S'15:23'
p203
S'16:12'
p204
tp205
a(S'17:18'
p206
S'17:55'
p207
tp208
asg1
(g2
g3
Ntp209
Rp210
(dp211
g7
I14
sb(lp212
(S'10:18'
p213
S'10:54'
p214
tp215
a(S'14:01'
p216
S'14:32'
p217
tp218
a(S'15:21'
p219
S'15:59'
p220
tp221
asg1
(cmachine
BrokenDownMachine
p222
g3
Ntp223
Rp224
(dp225
g7
I15
sb(lp226
S'Ute av drift'
p227
asg1
(g2
g3
Ntp228
Rp229
(dp230
g7
I16
sb(lp231
(S'10:18'
p232
S'10:57'
p233
tp234
a(S'14:58'
p235
S'15:48'
p236
tp237
a(S'15:59'
p238
S'16:37'
p239
tp240
a(S'16:43'
p241
S'17:21'
p242
tp243
asg1
(g2
g3
Ntp244
Rp245
(dp246
g7
I17
sb(lp247
(S'08:48'
p248
S'09:27'
p249
tp250
a(S'15:36'
p251
S'16:15'
p252
tp253
a(S'16:43'
p254
S'17:17'
p255
tp256
asg1
(g2
g3
Ntp257
Rp258
(dp259
g7
I18
sb(lp260
(S'08:48'
p261
S'09:27'
p262
tp263
a(S'14:10'
p264
S'14:44'
p265
tp266
a(S'15:36'
p267
S'16:24'
p268
tp269
a(S'17:11'
p270
S'17:48'
p271
tp272
asg1
(g2
g3
Ntp273
Rp274
(dp275
g7
I19
sb(lp276
(S'14:09'
p277
S'14:47'
p278
tp279
a(S'15:37'
p280
S'16:28'
p281
tp282
a(S'16:53'
p283
S'17:26'
p284
tp285
a(S'18:04'
p286
S'18:41'
p287
tp288
a(S'19:49'
p289
Ntp290
asg1
(g2
g3
Ntp291
Rp292
(dp293
g7
I20
sb(lp294
(S'12:02'
p295
S'12:41'
p296
tp297
a(S'14:07'
p298
S'14:41'
p299
tp300
a(S'16:14'
p301
S'16:47'
p302
tp303
a(S'17:27'
p304
S'18:06'
p305
tp306
a(S'19:50'
p307
Ntp308
as.