(dp0
ccopy_reg
_reconstructor
p1
(cmachine
ClosedMachine
p2
c__builtin__
object
p3
Ntp4
Rp5
(dp6
S'machine_id'
p7
I1
sb(lp8
(S'08:33'
p9
S'09:25'
p10
tp11
a(S'09:43'
p12
S'10:21'
p13
tp14
a(S'11:22'
p15
S'11:51'
p16
tp17
a(S'13:12'
p18
S'13:46'
p19
tp20
a(S'14:29'
p21
S'15:16'
p22
tp23
a(S'16:10'
p24
S'17:42'
p25
tp26
a(S'17:58'
p27
S'18:50'
p28
tp29
a(S'18:56'
p30
S'19:55'
p31
tp32
asg1
(g2
g3
Ntp33
Rp34
(dp35
g7
I2
sb(lp36
(S'08:34'
p37
S'09:26'
p38
tp39
a(S'09:43'
p40
S'10:23'
p41
tp42
a(S'11:22'
p43
S'11:52'
p44
tp45
a(S'13:12'
p46
S'13:46'
p47
tp48
a(S'14:29'
p49
S'15:20'
p50
tp51
a(S'15:38'
p52
S'16:29'
p53
tp54
a(S'17:59'
p55
S'18:39'
p56
tp57
a(S'18:56'
p58
S'19:41'
p59
tp60
a(S'19:49'
p61
Ntp62
asg1
(g2
g3
Ntp63
Rp64
(dp65
g7
I3
sb(lp66
(S'08:34'
p67
S'09:25'
p68
tp69
a(S'09:43'
p70
S'10:24'
p71
tp72
a(S'11:22'
p73
S'11:59'
p74
tp75
a(S'14:30'
p76
S'15:19'
p77
tp78
a(S'15:38'
p79
S'16:29'
p80
tp81
a(S'18:10'
p82
S'18:47'
p83
tp84
asg1
(g2
g3
Ntp85
Rp86
(dp87
g7
I4
sb(lp88
(S'08:52'
p89
S'09:31'
p90
tp91
a(S'10:22'
p92
S'10:56'
p93
tp94
a(S'12:44'
p95
S'13:35'
p96
tp97
a(S'14:31'
p98
S'15:10'
p99
tp100
a(S'15:43'
p101
S'16:22'
p102
tp103
a(S'18:10'
p104
S'18:49'
p105
tp106
asg1
(g2
g3
Ntp107
Rp108
(dp109
g7
I5
sb(lp110
(S'08:52'
p111
S'09:23'
p112
tp113
a(S'10:10'
p114
S'11:40'
p115
tp116
a(S'12:44'
p117
S'13:24'
p118
tp119
a(S'14:31'
p120
S'15:10'
p121
tp122
a(S'15:38'
p123
S'16:17'
p124
tp125
a(S'16:50'
p126
S'17:36'
p127
tp128
asg1
(g2
g3
Ntp129
Rp130
(dp131
g7
I6
sb(lp132
(S'09:22'
p133
S'09:59'
p134
tp135
a(S'10:22'
p136
S'11:00'
p137
tp138
a(S'13:31'
p139
S'14:10'
p140
tp141
a(S'15:37'
p142
S'16:14'
p143
tp144
a(S'16:40'
p145
S'17:17'
p146
tp147
a(S'19:02'
p148
S'19:48'
p149
tp150
asg1
(g2
g3
Ntp151
Rp152
(dp153
g7
I7
sb(lp154
(S'09:22'
p155
S'09:59'
p156
tp157
a(S'10:23'
p158
S'11:01'
p159
tp160
a(S'13:32'
p161
S'14:11'
p162
tp163
a(S'15:37'
p164
S'16:27'
p165
tp166
a(S'16:40'
p167
S'17:20'
p168
tp169
a(S'19:03'
p170
S'19:59'
p171
tp172
asg1
(g2
g3
Ntp173
Rp174
(dp175
g7
I8
sb(lp176
(S'09:35'
p177
S'10:14'
p178
tp179
a(S'12:56'
p180
S'13:43'
p181
tp182
a(S'15:37'
p183
S'16:17'
p184
tp185
a(S'16:40'
p186
S'17:19'
p187
tp188
asg1
(g2
g3
Ntp189
Rp190
(dp191
g7
I9
sb(lp192
(S'09:35'
p193
S'10:11'
p194
tp195
a(S'12:56'
p196
S'13:44'
p197
tp198
a(S'15:24'
p199
S'16:03'
p200
tp201
a(S'16:16'
p202
S'16:55'
p203
tp204
a(S'17:05'
p205
S'17:52'
p206
tp207
a(S'18:06'
p208
S'18:40'
p209
tp210
asg1
(g2
g3
Ntp211
Rp212
(dp213
g7
I10
sb(lp214
(S'09:35'
p215
S'10:12'
p216
tp217
a(S'15:24'
p218
S'16:08'
p219
tp220
a(S'16:16'
p221
S'16:56'
p222
tp223
a(S'17:05'
p224
S'17:52'
p225
tp226
a(S'18:06'
p227
S'18:39'
p228
tp229
asg1
(g2
g3
Ntp230
Rp231
(dp232
g7
I11
sb(lp233
(S'10:30'
p234
S'11:10'
p235
tp236
a(S'11:39'
p237
S'12:09'
p238
tp239
a(S'13:30'
p240
S'14:07'
p241
tp242
a(S'15:37'
p243
S'16:18'
p244
tp245
a(S'16:44'
p246
S'17:21'
p247
tp248
a(S'17:39'
p249
S'18:18'
p250
tp251
asg1
(g2
g3
Ntp252
Rp253
(dp254
g7
I12
sb(lp255
(S'10:30'
p256
S'11:10'
p257
tp258
a(S'11:39'
p259
S'12:09'
p260
tp261
a(S'13:26'
p262
S'14:03'
p263
tp264
a(S'15:12'
p265
S'15:52'
p266
tp267
a(S'16:33'
p268
S'17:19'
p269
tp270
a(S'17:39'
p271
S'18:18'
p272
tp273
asg1
(g2
g3
Ntp274
Rp275
(dp276
g7
I13
sb(lp277
(S'10:30'
p278
S'11:08'
p279
tp280
a(S'15:10'
p281
S'16:01'
p282
tp283
a(S'16:32'
p284
S'17:43'
p285
tp286
asg1
(g2
g3
Ntp287
Rp288
(dp289
g7
I14
sb(lp290
(S'14:38'
p291
S'15:28'
p292
tp293
a(S'15:53'
p294
S'16:44'
p295
tp296
a(S'17:39'
p297
S'18:18'
p298
tp299
asg1
(g2
g3
Ntp300
Rp301
(dp302
g7
I15
sb(lp303
(S'10:30'
p304
S'11:23'
p305
tp306
a(S'14:38'
p307
S'15:11'
p308
tp309
a(S'15:53'
p310
S'16:46'
p311
tp312
a(S'17:57'
p313
S'18:34'
p314
tp315
asg1
(g2
g3
Ntp316
Rp317
(dp318
g7
I16
sb(lp319
(S'10:30'
p320
S'11:10'
p321
tp322
a(S'14:38'
p323
S'15:11'
p324
tp325
a(S'15:53'
p326
S'16:40'
p327
tp328
a(S'17:51'
p329
S'17:56'
p330
tp331
asg1
(g2
g3
Ntp332
Rp333
(dp334
g7
I17
sb(lp335
(S'10:23'
p336
S'11:03'
p337
tp338
a(S'12:56'
p339
S'13:43'
p340
tp341
a(S'15:03'
p342
S'15:50'
p343
tp344
a(S'16:23'
p345
S'17:02'
p346
tp347
a(S'17:52'
p348
S'18:32'
p349
tp350
a(S'19:18'
p351
S'19:56'
p352
tp353
asg1
(g2
g3
Ntp354
Rp355
(dp356
g7
I18
sb(lp357
(S'08:30'
p358
S'09:11'
p359
tp360
a(S'11:41'
p361
S'12:20'
p362
tp363
a(S'15:03'
p364
S'15:55'
p365
tp366
a(S'16:23'
p367
S'16:53'
p368
tp369
a(S'17:15'
p370
S'17:54'
p371
tp372
asg1
(g2
g3
Ntp373
Rp374
(dp375
g7
I19
sb(lp376
(S'13:32'
p377
S'14:10'
p378
tp379
a(S'15:38'
p380
S'16:17'
p381
tp382
a(S'16:40'
p383
S'17:20'
p384
tp385
a(S'19:11'
p386
S'19:50'
p387
tp388
asg1
(g2
g3
Ntp389
Rp390
(dp391
g7
I20
sb(lp392
(S'09:45'
p393
S'10:25'
p394
tp395
a(S'15:37'
p396
S'15:38'
p397
tp398
a(S'15:41'
p399
S'16:30'
p400
tp401
a(S'19:10'
p402
S'19:49'
p403
tp404
as.