(dp0
ccopy_reg
_reconstructor
p1
(cmachine
ClosedMachine
p2
c__builtin__
object
p3
Ntp4
Rp5
(dp6
S'machine_id'
p7
I1
sb(lp8
(S'09:55'
p9
S'10:33'
p10
tp11
a(S'12:27'
p12
S'13:03'
p13
tp14
a(S'14:03'
p15
S'14:42'
p16
tp17
a(S'16:30'
p18
S'17:17'
p19
tp20
a(S'17:58'
p21
S'18:37'
p22
tp23
a(S'19:25'
p24
Ntp25
asg1
(g2
g3
Ntp26
Rp27
(dp28
g7
I2
sb(lp29
(S'11:33'
p30
S'12:14'
p31
tp32
a(S'13:24'
p33
S'13:54'
p34
tp35
a(S'15:10'
p36
S'15:49'
p37
tp38
a(S'16:09'
p39
S'16:56'
p40
tp41
a(S'17:58'
p42
S'18:37'
p43
tp44
asg1
(g2
g3
Ntp45
Rp46
(dp47
g7
I3
sb(lp48
(S'13:24'
p49
S'13:29'
p50
tp51
a(S'15:31'
p52
S'16:08'
p53
tp54
a(S'16:59'
p55
S'17:26'
p56
tp57
a(S'17:55'
p58
S'18:27'
p59
tp60
a(S'19:22'
p61
S'19:52'
p62
tp63
asg1
(g2
g3
Ntp64
Rp65
(dp66
g7
I4
sb(lp67
(S'06:25'
p68
S'07:03'
p69
tp70
a(S'10:37'
p71
S'11:38'
p72
tp73
a(S'13:24'
p74
S'14:01'
p75
tp76
a(S'14:32'
p77
S'15:10'
p78
tp79
a(S'17:40'
p80
S'18:20'
p81
tp82
a(S'19:05'
p83
S'19:52'
p84
tp85
asg1
(g2
g3
Ntp86
Rp87
(dp88
g7
I5
sb(lp89
(S'11:33'
p90
S'12:12'
p91
tp92
a(S'13:24'
p93
S'13:58'
p94
tp95
a(S'14:33'
p96
S'15:11'
p97
tp98
a(S'17:40'
p99
S'18:31'
p100
tp101
a(S'19:06'
p102
S'19:51'
p103
tp104
asg1
(g2
g3
Ntp105
Rp106
(dp107
g7
I6
sb(lp108
(S'08:24'
p109
S'09:03'
p110
tp111
a(S'11:40'
p112
S'12:26'
p113
tp114
a(S'14:41'
p115
S'15:28'
p116
tp117
a(S'16:45'
p118
S'17:30'
p119
tp120
a(S'17:55'
p121
S'18:00'
p122
tp123
a(S'18:01'
p124
S'18:34'
p125
tp126
a(S'19:21'
p127
S'19:59'
p128
tp129
asg1
(g2
g3
Ntp130
Rp131
(dp132
g7
I7
sb(lp133
(S'08:24'
p134
S'09:03'
p135
tp136
a(S'11:32'
p137
S'11:37'
p138
tp139
a(S'15:08'
p140
S'16:44'
p141
tp142
a(S'18:15'
p143
S'18:54'
p144
tp145
asg1
(g2
g3
Ntp146
Rp147
(dp148
g7
I8
sb(lp149
(S'07:14'
p150
S'08:07'
p151
tp152
a(S'10:46'
p153
S'11:26'
p154
tp155
a(S'11:41'
p156
S'12:21'
p157
tp158
a(S'13:55'
p159
S'14:45'
p160
tp161
a(S'15:15'
p162
S'16:04'
p163
tp164
a(S'17:21'
p165
S'18:13'
p166
tp167
a(S'18:21'
p168
S'19:08'
p169
tp170
a(S'19:33'
p171
Ntp172
asg1
(g2
g3
Ntp173
Rp174
(dp175
g7
I9
sb(lp176
(S'07:14'
p177
S'07:52'
p178
tp179
a(S'10:46'
p180
S'11:26'
p181
tp182
a(S'12:25'
p183
S'13:03'
p184
tp185
a(S'13:55'
p186
S'14:32'
p187
tp188
a(S'15:15'
p189
S'15:54'
p190
tp191
a(S'17:21'
p192
S'18:01'
p193
tp194
a(S'18:21'
p195
S'19:07'
p196
tp197
a(S'19:53'
p198
Ntp199
asg1
(g2
g3
Ntp200
Rp201
(dp202
g7
I10
sb(lp203
(S'08:01'
p204
S'08:53'
p205
tp206
a(S'10:47'
p207
S'11:27'
p208
tp209
a(S'12:10'
p210
S'12:49'
p211
tp212
a(S'13:23'
p213
S'14:00'
p214
tp215
a(S'14:47'
p216
S'15:24'
p217
tp218
a(S'19:53'
p219
Ntp220
asg1
(g2
g3
Ntp221
Rp222
(dp223
g7
I11
sb(lp224
(S'08:01'
p225
S'08:39'
p226
tp227
a(S'10:47'
p228
S'11:24'
p229
tp230
a(S'12:10'
p231
S'13:00'
p232
tp233
a(S'13:23'
p234
S'14:12'
p235
tp236
a(S'17:22'
p237
S'18:13'
p238
tp239
a(S'19:53'
p240
Ntp241
asg1
(g2
g3
Ntp242
Rp243
(dp244
g7
I12
sb(lp245
(S'08:01'
p246
S'08:51'
p247
tp248
a(S'10:47'
p249
S'11:25'
p250
tp251
a(S'12:11'
p252
S'12:50'
p253
tp254
a(S'17:22'
p255
S'18:04'
p256
tp257
asg1
(g2
g3
Ntp258
Rp259
(dp260
g7
I13
sb(lp261
(S'08:01'
p262
S'08:39'
p263
tp264
a(S'12:15'
p265
S'12:54'
p266
tp267
a(S'14:20'
p268
S'15:32'
p269
tp270
a(S'17:19'
p271
S'17:57'
p272
tp273
a(S'18:34'
p274
S'19:13'
p275
tp276
asg1
(g2
g3
Ntp277
Rp278
(dp279
g7
I14
sb(lp280
(S'08:01'
p281
S'08:41'
p282
tp283
a(S'12:15'
p284
S'12:20'
p285
tp286
a(S'12:25'
p287
S'13:20'
p288
tp289
a(S'15:11'
p290
S'15:51'
p291
tp292
a(S'17:20'
p293
S'17:25'
p294
tp295
a(S'18:47'
p296
S'19:27'
p297
tp298
asg1
(cmachine
BrokenDownMachine
p299
g3
Ntp300
Rp301
(dp302
g7
I15
sb(lp303
S'Ute av drift'
p304
asg1
(g2
g3
Ntp305
Rp306
(dp307
g7
I16
sb(lp308
(S'06:42'
p309
S'07:19'
p310
tp311
a(S'08:03'
p312
S'08:50'
p313
tp314
a(S'12:58'
p315
S'13:35'
p316
tp317
a(S'13:55'
p318
S'14:34'
p319
tp320
a(S'17:32'
p321
S'18:09'
p322
tp323
a(S'19:53'
p324
Ntp325
asg1
(g2
g3
Ntp326
Rp327
(dp328
g7
I17
sb(lp329
(S'06:42'
p330
S'07:19'
p331
tp332
a(S'08:12'
p333
S'08:52'
p334
tp335
a(S'10:55'
p336
S'11:33'
p337
tp338
a(S'13:30'
p339
S'14:20'
p340
tp341
a(S'15:18'
p342
S'16:04'
p343
tp344
a(S'17:39'
p345
S'18:24'
p346
tp347
asg1
(g2
g3
Ntp348
Rp349
(dp350
g7
I18
sb(lp351
(S'06:41'
p352
S'07:20'
p353
tp354
a(S'10:55'
p355
S'11:33'
p356
tp357
a(S'13:30'
p358
S'13:35'
p359
tp360
a(S'15:19'
p361
S'15:24'
p362
tp363
asg1
(g2
g3
Ntp364
Rp365
(dp366
g7
I19
sb(lp367
(S'08:02'
p368
S'08:42'
p369
tp370
a(S'11:41'
p371
S'12:35'
p372
tp373
a(S'13:47'
p374
S'14:27'
p375
tp376
a(S'17:19'
p377
S'17:55'
p378
tp379
a(S'18:32'
p380
S'19:10'
p381
tp382
asg1
(g2
g3
Ntp383
Rp384
(dp385
g7
I20
sb(lp386
(S'07:59'
p387
S'08:43'
p388
tp389
a(S'11:38'
p390
S'12:35'
p391
tp392
a(S'17:17'
p393
S'17:54'
p394
tp395
a(S'18:30'
p396
S'19:09'
p397
tp398
a(S'19:15'
p399
S'19:54'
p400
tp401
as.