(dp0
ccopy_reg
_reconstructor
p1
(cmachine
ClosedMachine
p2
c__builtin__
object
p3
Ntp4
Rp5
(dp6
S'machine_id'
p7
I1
sb(lp8
(S'07:10'
p9
S'07:46'
p10
tp11
a(S'10:32'
p12
S'11:19'
p13
tp14
a(S'13:00'
p15
S'13:38'
p16
tp17
a(S'13:40'
p18
S'14:19'
p19
tp20
a(S'15:37'
p21
S'16:27'
p22
tp23
a(S'18:22'
p24
S'19:01'
p25
tp26
asg1
(g2
g3
Ntp27
Rp28
(dp29
g7
I2
sb(lp30
(S'07:08'
p31
S'07:57'
p32
tp33
a(S'10:32'
p34
S'11:11'
p35
tp36
a(S'13:00'
p37
S'13:39'
p38
tp39
a(S'13:59'
p40
S'14:49'
p41
tp42
a(S'15:37'
p43
S'16:25'
p44
tp45
a(S'18:22'
p46
S'19:01'
p47
tp48
a(S'19:20'
p49
S'19:59'
p50
tp51
asg1
(g2
g3
Ntp52
Rp53
(dp54
g7
I3
sb(lp55
(S'07:07'
p56
S'07:44'
p57
tp58
a(S'10:01'
p59
S'10:40'
p60
tp61
a(S'12:57'
p62
S'13:36'
p63
tp64
a(S'13:59'
p65
S'14:37'
p66
tp67
a(S'18:32'
p68
S'19:09'
p69
tp70
a(S'19:55'
p71
Ntp72
asg1
(g2
g3
Ntp73
Rp74
(dp75
g7
I4
sb(lp76
(S'07:06'
p77
S'07:48'
p78
tp79
a(S'09:36'
p80
S'10:15'
p81
tp82
a(S'11:09'
p83
S'11:47'
p84
tp85
a(S'13:59'
p86
S'14:36'
p87
tp88
a(S'16:40'
p89
S'17:17'
p90
tp91
asg1
(g2
g3
Ntp92
Rp93
(dp94
g7
I5
sb(lp95
(S'07:05'
p96
S'07:36'
p97
tp98
a(S'09:36'
p99
S'10:15'
p100
tp101
a(S'11:09'
p102
S'11:48'
p103
tp104
a(S'14:55'
p105
S'15:47'
p106
tp107
a(S'18:31'
p108
S'19:08'
p109
tp110
a(S'19:55'
p111
Ntp112
asg1
(g2
g3
Ntp113
Rp114
(dp115
g7
I6
sb(lp116
(S'07:11'
p117
S'07:45'
p118
tp119
a(S'14:55'
p120
S'15:41'
p121
tp122
asg1
(g2
g3
Ntp123
Rp124
(dp125
g7
I7
sb(lp126
(S'07:26'
p127
S'08:05'
p128
tp129
a(S'14:55'
p130
S'15:38'
p131
tp132
a(S'19:56'
p133
Ntp134
asg1
(g2
g3
Ntp135
Rp136
(dp137
g7
I8
sb(lp138
(S'12:13'
p139
S'12:52'
p140
tp141
a(S'14:58'
p142
S'15:36'
p143
tp144
asg1
(g2
g3
Ntp145
Rp146
(dp147
g7
I9
sb(lp148
(S'07:42'
p149
S'08:45'
p150
tp151
a(S'12:13'
p152
S'12:59'
p153
tp154
a(S'14:58'
p155
S'15:47'
p156
tp157
asg1
(g2
g3
Ntp158
Rp159
(dp160
g7
I10
sb(lp161
(S'07:36'
p162
S'07:41'
p163
tp164
a(S'07:44'
p165
S'08:30'
p166
tp167
a(S'12:13'
p168
S'12:50'
p169
tp170
a(S'14:58'
p171
S'15:47'
p172
tp173
asg1
(g2
g3
Ntp174
Rp175
(dp176
g7
I11
sb(lp177
(S'14:58'
p178
S'15:42'
p179
tp180
asg1
(g2
g3
Ntp181
Rp182
(dp183
g7
I12
sb(lp184
(S'14:58'
p185
S'15:38'
p186
tp187
a(S'17:42'
p188
S'18:21'
p189
tp190
asg1
(g2
g3
Ntp191
Rp192
(dp193
g7
I13
sb(lp194
(S'09:34'
p195
S'10:13'
p196
tp197
a(S'17:43'
p198
S'18:20'
p199
tp200
asg1
(g2
g3
Ntp201
Rp202
(dp203
g7
I14
sb(lp204
(S'09:34'
p205
S'10:12'
p206
tp207
a(S'17:43'
p208
S'18:22'
p209
tp210
asg1
(g2
g3
Ntp211
Rp212
(dp213
g7
I15
sb(lp214
sg1
(g2
g3
Ntp215
Rp216
(dp217
g7
I16
sb(lp218
(S'07:42'
p219
S'08:21'
p220
tp221
a(S'10:28'
p222
S'11:08'
p223
tp224
a(S'11:29'
p225
S'12:15'
p226
tp227
a(S'13:15'
p228
S'13:54'
p229
tp230
a(S'14:53'
p231
S'15:31'
p232
tp233
a(S'16:32'
p234
S'17:26'
p235
tp236
a(S'19:49'
p237
Ntp238
asg1
(g2
g3
Ntp239
Rp240
(dp241
g7
I17
sb(lp242
(S'07:44'
p243
S'08:23'
p244
tp245
a(S'10:27'
p246
S'11:06'
p247
tp248
a(S'11:29'
p249
S'12:11'
p250
tp251
a(S'13:15'
p252
S'13:52'
p253
tp254
a(S'15:00'
p255
S'15:41'
p256
tp257
a(S'19:49'
p258
Ntp259
asg1
(g2
g3
Ntp260
Rp261
(dp262
g7
I18
sb(lp263
(S'07:27'
p264
S'08:06'
p265
tp266
a(S'10:25'
p267
S'11:05'
p268
tp269
a(S'11:29'
p270
S'12:07'
p271
tp272
a(S'13:15'
p273
S'14:16'
p274
tp275
asg1
(g2
g3
Ntp276
Rp277
(dp278
g7
I19
sb(lp279
(S'07:26'
p280
S'08:05'
p281
tp282
a(S'12:44'
p283
S'13:29'
p284
tp285
asg1
(g2
g3
Ntp286
Rp287
(dp288
g7
I20
sb(lp289
(S'07:27'
p290
S'08:05'
p291
tp292
a(S'09:27'
p293
S'10:07'
p294
tp295
a(S'10:45'
p296
S'11:38'
p297
tp298
a(S'11:53'
p299
S'12:32'
p300
tp301
as.