(dp0
ccopy_reg
_reconstructor
p1
(cmachine
ClosedMachine
p2
c__builtin__
object
p3
Ntp4
Rp5
(dp6
S'machine_id'
p7
I1
sb(lp8
(S'09:26'
p9
S'10:18'
p10
tp11
a(S'11:08'
p12
S'11:59'
p13
tp14
a(S'12:23'
p15
S'13:02'
p16
tp17
a(S'15:24'
p18
S'16:16'
p19
tp20
a(S'16:29'
p21
S'17:14'
p22
tp23
a(S'18:06'
p24
S'18:53'
p25
tp26
asg1
(g2
g3
Ntp27
Rp28
(dp29
g7
I2
sb(lp30
(S'08:06'
p31
S'08:36'
p32
tp33
a(S'09:13'
p34
S'09:51'
p35
tp36
a(S'11:33'
p37
S'12:12'
p38
tp39
a(S'12:58'
p40
S'13:43'
p41
tp42
a(S'15:08'
p43
S'15:48'
p44
tp45
a(S'16:02'
p46
S'16:49'
p47
tp48
a(S'17:46'
p49
S'18:24'
p50
tp51
asg1
(g2
g3
Ntp52
Rp53
(dp54
g7
I3
sb(lp55
(S'08:07'
p56
S'08:46'
p57
tp58
a(S'09:13'
p59
S'09:58'
p60
tp61
a(S'10:34'
p62
S'11:14'
p63
tp64
a(S'11:33'
p65
S'12:12'
p66
tp67
a(S'12:34'
p68
S'13:13'
p69
tp70
a(S'14:51'
p71
S'15:48'
p72
tp73
a(S'16:02'
p74
S'16:39'
p75
tp76
a(S'16:40'
p77
S'17:31'
p78
tp79
asg1
(g2
g3
Ntp80
Rp81
(dp82
g7
I4
sb(lp83
(S'08:07'
p84
S'08:55'
p85
tp86
a(S'09:26'
p87
S'10:05'
p88
tp89
a(S'12:10'
p90
S'13:05'
p91
tp92
a(S'13:26'
p93
S'14:57'
p94
tp95
a(S'16:02'
p96
S'16:49'
p97
tp98
a(S'17:46'
p99
S'18:25'
p100
tp101
a(S'18:48'
p102
S'19:28'
p103
tp104
asg1
(g2
g3
Ntp105
Rp106
(dp107
g7
I5
sb(lp108
(S'06:30'
p109
S'07:21'
p110
tp111
a(S'11:09'
p112
S'12:00'
p113
tp114
a(S'12:10'
p115
S'12:57'
p116
tp117
a(S'16:19'
p118
S'16:58'
p119
tp120
a(S'18:48'
p121
S'19:27'
p122
tp123
asg1
(g2
g3
Ntp124
Rp125
(dp126
g7
I6
sb(lp127
(S'09:26'
p128
S'10:04'
p129
tp130
a(S'14:44'
p131
S'15:23'
p132
tp133
a(S'16:19'
p134
S'16:58'
p135
tp136
asg1
(g2
g3
Ntp137
Rp138
(dp139
g7
I7
sb(lp140
(S'09:26'
p141
S'10:09'
p142
tp143
a(S'12:21'
p144
S'12:53'
p145
tp146
a(S'14:44'
p147
S'15:21'
p148
tp149
a(S'16:19'
p150
S'17:08'
p151
tp152
asg1
(g2
g3
Ntp153
Rp154
(dp155
g7
I8
sb(lp156
(S'09:07'
p157
S'09:44'
p158
tp159
a(S'10:40'
p160
S'11:19'
p161
tp162
a(S'16:11'
p163
S'16:50'
p164
tp165
a(S'17:47'
p166
S'18:37'
p167
tp168
asg1
(g2
g3
Ntp169
Rp170
(dp171
g7
I9
sb(lp172
(S'06:33'
p173
S'07:20'
p174
tp175
a(S'09:06'
p176
S'09:45'
p177
tp178
a(S'10:40'
p179
S'11:19'
p180
tp181
a(S'14:49'
p182
S'15:40'
p183
tp184
a(S'16:29'
p185
S'17:06'
p186
tp187
a(S'18:06'
p188
S'19:04'
p189
tp190
asg1
(g2
g3
Ntp191
Rp192
(dp193
g7
I10
sb(lp194
(S'08:34'
p195
S'09:13'
p196
tp197
a(S'10:40'
p198
S'11:19'
p199
tp200
a(S'15:14'
p201
S'16:09'
p202
tp203
a(S'16:29'
p204
S'17:15'
p205
tp206
a(S'17:48'
p207
S'18:18'
p208
tp209
asg1
(g2
g3
Ntp210
Rp211
(dp212
g7
I11
sb(lp213
(S'08:34'
p214
S'09:22'
p215
tp216
a(S'15:14'
p217
S'16:00'
p218
tp219
a(S'16:17'
p220
S'16:54'
p221
tp222
a(S'17:34'
p223
S'18:42'
p224
tp225
a(S'19:54'
p226
Ntp227
asg1
(g2
g3
Ntp228
Rp229
(dp230
g7
I12
sb(lp231
(S'09:07'
p232
S'09:46'
p233
tp234
a(S'12:23'
p235
S'13:02'
p236
tp237
a(S'15:14'
p238
S'15:53'
p239
tp240
a(S'16:17'
p241
S'16:48'
p242
tp243
a(S'17:34'
p244
S'19:01'
p245
tp246
a(S'19:54'
p247
Ntp248
asg1
(g2
g3
Ntp249
Rp250
(dp251
g7
I13
sb(lp252
(S'08:40'
p253
S'09:20'
p254
tp255
a(S'14:29'
p256
S'15:06'
p257
tp258
a(S'16:30'
p259
S'17:09'
p260
tp261
a(S'17:47'
p262
S'18:26'
p263
tp264
a(S'19:11'
p265
S'19:44'
p266
tp267
asg1
(g2
g3
Ntp268
Rp269
(dp270
g7
I14
sb(lp271
(S'08:40'
p272
S'09:10'
p273
tp274
a(S'14:29'
p275
S'14:59'
p276
tp277
a(S'16:30'
p278
S'17:09'
p279
tp280
a(S'17:46'
p281
S'18:36'
p282
tp283
a(S'19:11'
p284
S'19:50'
p285
tp286
asg1
(cmachine
BrokenDownMachine
p287
g3
Ntp288
Rp289
(dp290
g7
I15
sb(lp291
S'Ute av drift'
p292
asg1
(g2
g3
Ntp293
Rp294
(dp295
g7
I16
sb(lp296
(S'08:19'
p297
S'09:06'
p298
tp299
a(S'16:11'
p300
S'16:53'
p301
tp302
a(S'17:27'
p303
S'18:18'
p304
tp305
asg1
(g2
g3
Ntp306
Rp307
(dp308
g7
I17
sb(lp309
(S'08:19'
p310
S'09:20'
p311
tp312
a(S'16:11'
p313
S'16:55'
p314
tp315
a(S'17:27'
p316
S'18:06'
p317
tp318
asg1
(g2
g3
Ntp319
Rp320
(dp321
g7
I18
sb(lp322
sg1
(g2
g3
Ntp323
Rp324
(dp325
g7
I19
sb(lp326
(S'12:24'
p327
S'12:29'
p328
tp329
a(S'14:44'
p330
S'15:23'
p331
tp332
a(S'16:11'
p333
S'16:50'
p334
tp335
a(S'17:47'
p336
S'18:25'
p337
tp338
asg1
(g2
g3
Ntp339
Rp340
(dp341
g7
I20
sb(lp342
(S'09:22'
p343
S'10:01'
p344
tp345
a(S'12:21'
p346
S'13:33'
p347
tp348
a(S'14:43'
p349
S'15:20'
p350
tp351
a(S'16:12'
p352
S'16:52'
p353
tp354
as.