(dp0
ccopy_reg
_reconstructor
p1
(cmachine
ClosedMachine
p2
c__builtin__
object
p3
Ntp4
Rp5
(dp6
S'machine_id'
p7
I1
sb(lp8
(S'07:23'
p9
S'08:54'
p10
tp11
a(S'10:58'
p12
S'11:35'
p13
tp14
a(S'13:39'
p15
S'14:18'
p16
tp17
a(S'16:09'
p18
S'16:49'
p19
tp20
asg1
(g2
g3
Ntp21
Rp22
(dp23
g7
I2
sb(lp24
(S'07:24'
p25
S'08:32'
p26
tp27
a(S'13:44'
p28
S'14:36'
p29
tp30
a(S'16:09'
p31
S'16:40'
p32
tp33
asg1
(g2
g3
Ntp34
Rp35
(dp36
g7
I3
sb(lp37
(S'13:43'
p38
S'14:20'
p39
tp40
a(S'15:29'
p41
S'15:34'
p42
tp43
a(S'15:43'
p44
S'16:22'
p45
tp46
a(S'19:16'
p47
S'19:53'
p48
tp49
asg1
(g2
g3
Ntp50
Rp51
(dp52
g7
I4
sb(lp53
(S'10:49'
p54
S'11:36'
p55
tp56
a(S'13:41'
p57
S'14:35'
p58
tp59
a(S'17:11'
p60
S'17:50'
p61
tp62
a(S'19:01'
p63
S'19:40'
p64
tp65
asg1
(g2
g3
Ntp66
Rp67
(dp68
g7
I5
sb(lp69
(S'10:49'
p70
S'11:34'
p71
tp72
a(S'13:40'
p73
S'14:31'
p74
tp75
a(S'16:09'
p76
S'16:47'
p77
tp78
a(S'18:31'
p79
S'19:04'
p80
tp81
asg1
(g2
g3
Ntp82
Rp83
(dp84
g7
I6
sb(lp85
(S'17:53'
p86
S'18:31'
p87
tp88
a(S'19:29'
p89
Ntp90
asg1
(g2
g3
Ntp91
Rp92
(dp93
g7
I7
sb(lp94
(S'17:53'
p95
S'18:50'
p96
tp97
a(S'19:29'
p98
Ntp99
asg1
(g2
g3
Ntp100
Rp101
(dp102
g7
I8
sb(lp103
(S'08:10'
p104
S'08:49'
p105
tp106
a(S'09:35'
p107
S'10:21'
p108
tp109
a(S'13:10'
p110
S'13:53'
p111
tp112
a(S'15:23'
p113
S'16:02'
p114
tp115
asg1
(g2
g3
Ntp116
Rp117
(dp118
g7
I9
sb(lp119
(S'08:10'
p120
S'08:43'
p121
tp122
a(S'09:35'
p123
S'10:21'
p124
tp125
a(S'12:00'
p126
S'12:47'
p127
tp128
a(S'13:10'
p129
S'13:47'
p130
tp131
a(S'14:58'
p132
S'15:36'
p133
tp134
asg1
(g2
g3
Ntp135
Rp136
(dp137
g7
I10
sb(lp138
(S'08:10'
p139
S'08:40'
p140
tp141
a(S'10:41'
p142
S'11:19'
p143
tp144
a(S'11:36'
p145
S'12:15'
p146
tp147
a(S'15:23'
p148
S'16:03'
p149
tp150
a(S'18:22'
p151
S'19:00'
p152
tp153
asg1
(g2
g3
Ntp154
Rp155
(dp156
g7
I11
sb(lp157
sg1
(g2
g3
Ntp158
Rp159
(dp160
g7
I12
sb(lp161
sg1
(g2
g3
Ntp162
Rp163
(dp164
g7
I13
sb(lp165
(S'08:27'
p166
S'09:07'
p167
tp168
a(S'09:41'
p169
S'10:20'
p170
tp171
asg1
(g2
g3
Ntp172
Rp173
(dp174
g7
I14
sb(lp175
(S'08:27'
p176
S'09:06'
p177
tp178
a(S'09:41'
p179
S'10:18'
p180
tp181
asg1
(g2
g3
Ntp182
Rp183
(dp184
g7
I15
sb(lp185
(S'07:32'
p186
S'08:21'
p187
tp188
a(S'11:39'
p189
S'12:20'
p190
tp191
a(S'13:45'
p192
S'14:43'
p193
tp194
a(S'17:28'
p195
S'18:16'
p196
tp197
asg1
(g2
g3
Ntp198
Rp199
(dp200
g7
I16
sb(lp201
(S'07:32'
p202
S'08:19'
p203
tp204
a(S'11:39'
p205
S'12:16'
p206
tp207
a(S'13:03'
p208
S'13:41'
p209
tp210
a(S'17:28'
p211
S'18:15'
p212
tp213
asg1
(g2
g3
Ntp214
Rp215
(dp216
g7
I17
sb(lp217
(S'07:20'
p218
S'07:50'
p219
tp220
a(S'09:38'
p221
S'10:18'
p222
tp223
a(S'12:00'
p224
S'12:51'
p225
tp226
a(S'13:03'
p227
S'13:42'
p228
tp229
a(S'14:51'
p230
S'15:30'
p231
tp232
a(S'17:36'
p233
S'18:26'
p234
tp235
a(S'19:05'
p236
S'19:35'
p237
tp238
asg1
(g2
g3
Ntp239
Rp240
(dp241
g7
I18
sb(lp242
(S'07:20'
p243
S'07:57'
p244
tp245
a(S'09:38'
p246
S'10:18'
p247
tp248
a(S'13:03'
p249
S'13:42'
p250
tp251
a(S'14:51'
p252
S'15:30'
p253
tp254
a(S'17:36'
p255
S'18:25'
p256
tp257
a(S'19:05'
p258
S'19:35'
p259
tp260
asg1
(g2
g3
Ntp261
Rp262
(dp263
g7
I19
sb(lp264
(S'13:36'
p265
S'14:14'
p266
tp267
a(S'18:12'
p268
S'18:58'
p269
tp270
a(S'19:34'
p271
Ntp272
asg1
(g2
g3
Ntp273
Rp274
(dp275
g7
I20
sb(lp276
(S'18:12'
p277
S'18:49'
p278
tp279
a(S'19:36'
p280
Ntp281
as.