(dp0
ccopy_reg
_reconstructor
p1
(cmachine
ClosedMachine
p2
c__builtin__
object
p3
Ntp4
Rp5
(dp6
S'machine_id'
p7
I1
sb(lp8
(S'08:44'
p9
S'09:22'
p10
tp11
a(S'11:28'
p12
S'12:05'
p13
tp14
a(S'12:24'
p15
S'13:03'
p16
tp17
a(S'14:21'
p18
S'14:58'
p19
tp20
asg1
(g2
g3
Ntp21
Rp22
(dp23
g7
I2
sb(lp24
(S'08:49'
p25
S'09:39'
p26
tp27
a(S'11:05'
p28
S'11:38'
p29
tp30
a(S'12:24'
p31
S'13:02'
p32
tp33
a(S'14:21'
p34
S'14:58'
p35
tp36
asg1
(g2
g3
Ntp37
Rp38
(dp39
g7
I3
sb(lp40
(S'07:47'
p41
S'08:36'
p42
tp43
a(S'08:56'
p44
S'09:42'
p45
tp46
a(S'10:55'
p47
S'11:32'
p48
tp49
a(S'12:17'
p50
S'13:04'
p51
tp52
a(S'14:15'
p53
S'14:48'
p54
tp55
a(S'17:02'
p56
S'17:41'
p57
tp58
a(S'19:10'
p59
S'19:48'
p60
tp61
asg1
(g2
g3
Ntp62
Rp63
(dp64
g7
I4
sb(lp65
(S'06:14'
p66
S'06:53'
p67
tp68
a(S'08:44'
p69
S'09:26'
p70
tp71
a(S'10:55'
p72
S'11:33'
p73
tp74
a(S'12:17'
p75
S'12:57'
p76
tp77
a(S'13:55'
p78
S'14:41'
p79
tp80
a(S'15:25'
p81
S'16:20'
p82
tp83
a(S'17:01'
p84
S'17:41'
p85
tp86
a(S'19:10'
p87
S'19:48'
p88
tp89
asg1
(g2
g3
Ntp90
Rp91
(dp92
g7
I5
sb(lp93
(S'06:14'
p94
S'06:52'
p95
tp96
a(S'08:44'
p97
S'09:23'
p98
tp99
a(S'10:55'
p100
S'11:43'
p101
tp102
a(S'12:17'
p103
S'12:58'
p104
tp105
a(S'13:55'
p106
S'14:42'
p107
tp108
asg1
(g2
g3
Ntp109
Rp110
(dp111
g7
I6
sb(lp112
(S'08:44'
p113
S'09:21'
p114
tp115
a(S'11:53'
p116
S'12:31'
p117
tp118
a(S'13:02'
p119
S'13:41'
p120
tp121
asg1
(g2
g3
Ntp122
Rp123
(dp124
g7
I7
sb(lp125
(S'10:31'
p126
S'11:20'
p127
tp128
a(S'11:53'
p129
S'12:31'
p130
tp131
a(S'13:02'
p132
S'13:41'
p133
tp134
asg1
(g2
g3
Ntp135
Rp136
(dp137
g7
I8
sb(lp138
(S'09:46'
p139
S'10:24'
p140
tp141
a(S'10:58'
p142
S'11:45'
p143
tp144
a(S'12:24'
p145
S'13:01'
p146
tp147
a(S'13:07'
p148
S'13:45'
p149
tp150
a(S'14:43'
p151
S'15:16'
p152
tp153
a(S'19:06'
p154
S'19:59'
p155
tp156
asg1
(g2
g3
Ntp157
Rp158
(dp159
g7
I9
sb(lp160
(S'09:46'
p161
S'10:42'
p162
tp163
a(S'10:58'
p164
S'11:43'
p165
tp166
a(S'12:20'
p167
S'12:53'
p168
tp169
a(S'13:18'
p170
S'13:56'
p171
tp172
a(S'14:43'
p173
S'15:22'
p174
tp175
a(S'17:02'
p176
S'17:34'
p177
tp178
asg1
(g2
g3
Ntp179
Rp180
(dp181
g7
I10
sb(lp182
(S'07:25'
p183
S'08:02'
p184
tp185
a(S'08:54'
p186
S'09:40'
p187
tp188
a(S'11:52'
p189
S'12:32'
p190
tp191
a(S'13:22'
p192
S'13:59'
p193
tp194
a(S'14:43'
p195
S'15:22'
p196
tp197
a(S'17:29'
p198
S'18:07'
p199
tp200
a(S'19:06'
p201
S'19:46'
p202
tp203
asg1
(g2
g3
Ntp204
Rp205
(dp206
g7
I11
sb(lp207
(S'07:24'
p208
S'08:16'
p209
tp210
a(S'08:54'
p211
S'09:41'
p212
tp213
a(S'11:52'
p214
S'12:26'
p215
tp216
a(S'12:40'
p217
S'13:20'
p218
tp219
a(S'14:43'
p220
S'15:20'
p221
tp222
a(S'17:29'
p223
S'18:07'
p224
tp225
a(S'19:06'
p226
S'19:44'
p227
tp228
asg1
(g2
g3
Ntp229
Rp230
(dp231
g7
I12
sb(lp232
(S'07:24'
p233
S'08:02'
p234
tp235
a(S'08:54'
p236
S'09:39'
p237
tp238
a(S'11:52'
p239
S'12:30'
p240
tp241
a(S'12:40'
p242
S'13:28'
p243
tp244
a(S'14:43'
p245
S'15:21'
p246
tp247
a(S'17:29'
p248
S'18:07'
p249
tp250
asg1
(g2
g3
Ntp251
Rp252
(dp253
g7
I13
sb(lp254
(S'11:52'
p255
S'12:31'
p256
tp257
a(S'16:00'
p258
S'16:47'
p259
tp260
a(S'17:29'
p261
S'18:08'
p262
tp263
asg1
(g2
g3
Ntp264
Rp265
(dp266
g7
I14
sb(lp267
(S'09:03'
p268
S'09:54'
p269
tp270
a(S'11:52'
p271
S'12:32'
p272
tp273
a(S'13:02'
p274
S'13:41'
p275
tp276
a(S'17:29'
p277
S'18:08'
p278
tp279
a(S'19:11'
p280
S'19:59'
p281
tp282
asg1
(cmachine
BrokenDownMachine
p283
g3
Ntp284
Rp285
(dp286
g7
I15
sb(lp287
S'Ute av drift'
p288
asg1
(g2
g3
Ntp289
Rp290
(dp291
g7
I16
sb(lp292
(S'11:52'
p293
S'12:51'
p294
tp295
a(S'13:00'
p296
S'13:54'
p297
tp298
a(S'19:09'
p299
S'19:48'
p300
tp301
asg1
(g2
g3
Ntp302
Rp303
(dp304
g7
I17
sb(lp305
(S'11:52'
p306
S'12:37'
p307
tp308
a(S'13:08'
p309
S'13:46'
p310
tp311
a(S'14:52'
p312
S'15:25'
p313
tp314
a(S'19:09'
p315
S'19:59'
p316
tp317
asg1
(g2
g3
Ntp318
Rp319
(dp320
g7
I18
sb(lp321
sg1
(g2
g3
Ntp322
Rp323
(dp324
g7
I19
sb(lp325
(S'11:31'
p326
S'12:18'
p327
tp328
a(S'12:26'
p329
S'13:03'
p330
tp331
a(S'14:35'
p332
S'15:14'
p333
tp334
asg1
(g2
g3
Ntp335
Rp336
(dp337
g7
I20
sb(lp338
(S'12:26'
p339
S'12:57'
p340
tp341
a(S'14:34'
p342
S'15:22'
p343
tp344
as.