(dp0
ccopy_reg
_reconstructor
p1
(cmachine
ClosedMachine
p2
c__builtin__
object
p3
Ntp4
Rp5
(dp6
S'machine_id'
p7
I1
sb(lp8
(S'07:25'
p9
S'07:55'
p10
tp11
a(S'18:26'
p12
S'19:02'
p13
tp14
a(S'19:17'
p15
S'19:56'
p16
tp17
asg1
(g2
g3
Ntp18
Rp19
(dp20
g7
I2
sb(lp21
(S'16:39'
p22
S'17:19'
p23
tp24
a(S'18:26'
p25
S'19:04'
p26
tp27
asg1
(g2
g3
Ntp28
Rp29
(dp30
g7
I3
sb(lp31
(S'13:18'
p32
S'13:58'
p33
tp34
a(S'16:27'
p35
S'17:06'
p36
tp37
a(S'18:52'
p38
Ntp39
asg1
(g2
g3
Ntp40
Rp41
(dp42
g7
I4
sb(lp43
(S'10:33'
p44
S'11:11'
p45
tp46
a(S'13:18'
p47
S'13:58'
p48
tp49
a(S'14:49'
p50
S'15:28'
p51
tp52
a(S'16:27'
p53
S'17:06'
p54
tp55
a(S'18:52'
p56
S'18:57'
p57
tp58
asg1
(g2
g3
Ntp59
Rp60
(dp61
g7
I5
sb(lp62
(S'07:38'
p63
S'09:04'
p64
tp65
a(S'10:33'
p66
S'11:11'
p67
tp68
a(S'12:41'
p69
S'13:18'
p70
tp71
a(S'14:49'
p72
S'15:28'
p73
tp74
a(S'16:33'
p75
S'17:20'
p76
tp77
a(S'18:37'
p78
S'19:28'
p79
tp80
asg1
(g2
g3
Ntp81
Rp82
(dp83
g7
I6
sb(lp84
(S'18:39'
p85
S'19:16'
p86
tp87
a(S'19:40'
p88
Ntp89
asg1
(g2
g3
Ntp90
Rp91
(dp92
g7
I7
sb(lp93
(S'15:58'
p94
S'16:31'
p95
tp96
a(S'17:17'
p97
S'17:28'
p98
tp99
asg1
(g2
g3
Ntp100
Rp101
(dp102
g7
I8
sb(lp103
(S'13:25'
p104
S'13:43'
p105
tp106
a(S'19:10'
p107
S'19:29'
p108
tp109
asg1
(g2
g3
Ntp110
Rp111
(dp112
g7
I9
sb(lp113
(S'17:16'
p114
S'17:54'
p115
tp116
a(S'18:48'
p117
S'19:27'
p118
tp119
a(S'19:56'
p120
Ntp121
asg1
(g2
g3
Ntp122
Rp123
(dp124
g7
I10
sb(lp125
(S'10:08'
p126
S'10:45'
p127
tp128
a(S'17:16'
p129
S'17:47'
p130
tp131
a(S'18:09'
p132
S'18:47'
p133
tp134
a(S'18:51'
p135
S'19:40'
p136
tp137
asg1
(g2
g3
Ntp138
Rp139
(dp140
g7
I11
sb(lp141
(S'10:08'
p142
S'10:41'
p143
tp144
a(S'17:17'
p145
S'17:47'
p146
tp147
a(S'17:59'
p148
S'18:04'
p149
tp150
a(S'18:06'
p151
S'18:53'
p152
tp153
a(S'19:12'
p154
S'19:46'
p155
tp156
asg1
(g2
g3
Ntp157
Rp158
(dp159
g7
I12
sb(lp160
(S'10:08'
p161
S'10:47'
p162
tp163
a(S'14:07'
p164
S'14:45'
p165
tp166
a(S'17:17'
p167
S'17:54'
p168
tp169
a(S'17:59'
p170
S'18:04'
p171
tp172
a(S'18:07'
p173
S'18:54'
p174
tp175
a(S'19:14'
p176
Ntp177
asg1
(g2
g3
Ntp178
Rp179
(dp180
g7
I13
sb(lp181
(S'14:05'
p182
S'14:46'
p183
tp184
a(S'17:17'
p185
S'17:54'
p186
tp187
a(S'18:37'
p188
S'19:16'
p189
tp190
asg1
(g2
g3
Ntp191
Rp192
(dp193
g7
I14
sb(lp194
(S'08:42'
p195
S'09:21'
p196
tp197
a(S'14:05'
p198
S'14:43'
p199
tp200
a(S'17:40'
p201
S'18:25'
p202
tp203
a(S'18:52'
p204
Ntp205
asg1
(g2
g3
Ntp206
Rp207
(dp208
g7
I15
sb(lp209
(S'08:42'
p210
S'09:23'
p211
tp212
a(S'14:05'
p213
S'14:37'
p214
tp215
a(S'17:40'
p216
S'18:26'
p217
tp218
a(S'18:40'
p219
S'19:19'
p220
tp221
a(S'19:40'
p222
Ntp223
asg1
(g2
g3
Ntp224
Rp225
(dp226
g7
I16
sb(lp227
(S'08:42'
p228
S'09:13'
p229
tp230
a(S'14:06'
p231
S'14:36'
p232
tp233
a(S'17:40'
p234
S'18:27'
p235
tp236
a(S'18:40'
p237
S'19:17'
p238
tp239
a(S'19:57'
p240
Ntp241
asg1
(g2
g3
Ntp242
Rp243
(dp244
g7
I17
sb(lp245
(S'08:42'
p246
S'09:23'
p247
tp248
a(S'14:06'
p249
S'14:45'
p250
tp251
a(S'15:30'
p252
S'16:08'
p253
tp254
a(S'17:17'
p255
S'17:56'
p256
tp257
a(S'18:53'
p258
S'19:30'
p259
tp260
a(S'19:57'
p261
Ntp262
asg1
(g2
g3
Ntp263
Rp264
(dp265
g7
I18
sb(lp266
(S'08:42'
p267
S'09:12'
p268
tp269
a(S'17:40'
p270
S'18:20'
p271
tp272
a(S'18:39'
p273
S'19:12'
p274
tp275
a(S'19:56'
p276
Ntp277
asg1
(g2
g3
Ntp278
Rp279
(dp280
g7
I19
sb(lp281
(S'07:28'
p282
S'08:07'
p283
tp284
a(S'09:23'
p285
S'09:52'
p286
tp287
a(S'18:37'
p288
S'19:16'
p289
tp290
a(S'19:41'
p291
Ntp292
asg1
(g2
g3
Ntp293
Rp294
(dp295
g7
I20
sb(lp296
(S'09:22'
p297
S'10:01'
p298
tp299
a(S'18:51'
p300
Ntp301
as.