(dp0
ccopy_reg
_reconstructor
p1
(cmachine
ClosedMachine
p2
c__builtin__
object
p3
Ntp4
Rp5
(dp6
S'machine_id'
p7
I1
sb(lp8
(S'08:28'
p9
S'09:05'
p10
tp11
a(S'09:38'
p12
S'10:16'
p13
tp14
a(S'10:45'
p15
S'11:24'
p16
tp17
a(S'12:13'
p18
S'12:50'
p19
tp20
a(S'13:16'
p21
S'14:04'
p22
tp23
a(S'14:34'
p24
S'15:04'
p25
tp26
a(S'17:15'
p27
S'17:54'
p28
tp29
a(S'18:33'
p30
S'19:21'
p31
tp32
a(S'19:49'
p33
Ntp34
asg1
(g2
g3
Ntp35
Rp36
(dp37
g7
I2
sb(lp38
(S'08:28'
p39
S'09:06'
p40
tp41
a(S'09:32'
p42
S'10:12'
p43
tp44
a(S'10:42'
p45
S'11:25'
p46
tp47
a(S'12:13'
p48
S'12:51'
p49
tp50
a(S'12:58'
p51
S'13:37'
p52
tp53
a(S'14:24'
p54
S'15:01'
p55
tp56
a(S'17:50'
p57
S'18:29'
p58
tp59
a(S'18:33'
p60
S'19:20'
p61
tp62
a(S'19:49'
p63
Ntp64
asg1
(g2
g3
Ntp65
Rp66
(dp67
g7
I3
sb(lp68
(S'09:29'
p69
S'10:16'
p70
tp71
a(S'10:42'
p72
S'11:19'
p73
tp74
a(S'12:13'
p75
S'12:52'
p76
tp77
a(S'13:13'
p78
S'14:00'
p79
tp80
a(S'16:48'
p81
S'17:24'
p82
tp83
a(S'18:33'
p84
S'19:32'
p85
tp86
a(S'19:49'
p87
Ntp88
asg1
(g2
g3
Ntp89
Rp90
(dp91
g7
I4
sb(lp92
(S'07:13'
p93
S'08:04'
p94
tp95
a(S'09:29'
p96
S'10:16'
p97
tp98
a(S'10:42'
p99
S'11:39'
p100
tp101
a(S'12:13'
p102
S'12:55'
p103
tp104
a(S'12:58'
p105
S'13:45'
p106
tp107
a(S'15:55'
p108
S'16:42'
p109
tp110
a(S'18:33'
p111
S'19:20'
p112
tp113
asg1
(g2
g3
Ntp114
Rp115
(dp116
g7
I5
sb(lp117
(S'09:29'
p118
S'10:16'
p119
tp120
a(S'10:42'
p121
S'11:19'
p122
tp123
a(S'12:13'
p124
S'12:51'
p125
tp126
a(S'12:58'
p127
S'13:49'
p128
tp129
a(S'14:19'
p130
S'15:09'
p131
tp132
a(S'15:55'
p133
S'16:40'
p134
tp135
a(S'18:34'
p136
S'19:21'
p137
tp138
a(S'19:58'
p139
Ntp140
asg1
(g2
g3
Ntp141
Rp142
(dp143
g7
I6
sb(lp144
(S'08:20'
p145
S'08:57'
p146
tp147
a(S'09:30'
p148
S'10:16'
p149
tp150
a(S'10:43'
p151
S'11:22'
p152
tp153
a(S'12:20'
p154
S'13:07'
p155
tp156
a(S'17:24'
p157
S'17:57'
p158
tp159
a(S'19:15'
p160
S'19:54'
p161
tp162
asg1
(g2
g3
Ntp163
Rp164
(dp165
g7
I7
sb(lp166
(S'08:20'
p167
S'08:57'
p168
tp169
a(S'10:43'
p170
S'11:22'
p171
tp172
a(S'12:47'
p173
S'13:34'
p174
tp175
a(S'15:06'
p176
S'15:53'
p177
tp178
a(S'17:25'
p179
S'17:58'
p180
tp181
a(S'18:35'
p182
S'19:14'
p183
tp184
asg1
(g2
g3
Ntp185
Rp186
(dp187
g7
I8
sb(lp188
(S'07:54'
p189
S'08:33'
p190
tp191
a(S'09:13'
p192
S'09:51'
p193
tp194
a(S'10:37'
p195
S'11:23'
p196
tp197
a(S'13:28'
p198
S'14:15'
p199
tp200
a(S'15:06'
p201
S'15:53'
p202
tp203
a(S'17:36'
p204
S'18:16'
p205
tp206
a(S'19:34'
p207
Ntp208
asg1
(g2
g3
Ntp209
Rp210
(dp211
g7
I9
sb(lp212
(S'09:14'
p213
S'10:08'
p214
tp215
a(S'10:37'
p216
S'11:30'
p217
tp218
a(S'14:56'
p219
S'15:35'
p220
tp221
a(S'17:40'
p222
S'18:19'
p223
tp224
a(S'19:34'
p225
Ntp226
asg1
(g2
g3
Ntp227
Rp228
(dp229
g7
I10
sb(lp230
(S'09:14'
p231
S'09:58'
p232
tp233
a(S'10:18'
p234
S'11:05'
p235
tp236
a(S'12:48'
p237
S'13:27'
p238
tp239
a(S'13:36'
p240
S'14:15'
p241
tp242
a(S'15:08'
p243
S'15:41'
p244
tp245
a(S'16:27'
p246
S'17:04'
p247
tp248
a(S'17:41'
p249
S'18:20'
p250
tp251
asg1
(g2
g3
Ntp252
Rp253
(dp254
g7
I11
sb(lp255
(S'09:56'
p256
S'10:46'
p257
tp258
a(S'11:05'
p259
S'11:44'
p260
tp261
a(S'12:32'
p262
S'13:28'
p263
tp264
a(S'14:53'
p265
S'15:33'
p266
tp267
a(S'16:27'
p268
S'17:05'
p269
tp270
a(S'18:37'
p271
S'19:16'
p272
tp273
asg1
(g2
g3
Ntp274
Rp275
(dp276
g7
I12
sb(lp277
(S'09:22'
p278
S'10:05'
p279
tp280
a(S'10:18'
p281
S'11:05'
p282
tp283
a(S'12:32'
p284
S'13:18'
p285
tp286
a(S'13:32'
p287
S'14:10'
p288
tp289
a(S'15:08'
p290
S'15:54'
p291
tp292
a(S'16:27'
p293
S'16:57'
p294
tp295
a(S'18:34'
p296
S'19:21'
p297
tp298
asg1
(g2
g3
Ntp299
Rp300
(dp301
g7
I13
sb(lp302
(S'09:41'
p303
S'10:18'
p304
tp305
a(S'10:37'
p306
S'11:24'
p307
tp308
a(S'12:50'
p309
S'13:29'
p310
tp311
a(S'17:18'
p312
S'17:56'
p313
tp314
a(S'18:10'
p315
S'18:47'
p316
tp317
asg1
(g2
g3
Ntp318
Rp319
(dp320
g7
I14
sb(lp321
(S'09:28'
p322
S'10:16'
p323
tp324
a(S'10:22'
p325
S'11:11'
p326
tp327
a(S'12:21'
p328
S'13:00'
p329
tp330
a(S'13:07'
p331
S'13:43'
p332
tp333
a(S'14:53'
p334
S'15:30'
p335
tp336
a(S'17:21'
p337
S'17:55'
p338
tp339
a(S'19:16'
p340
S'19:53'
p341
tp342
asg1
(cmachine
BrokenDownMachine
p343
g3
Ntp344
Rp345
(dp346
g7
I15
sb(lp347
S'Ute av drift'
p348
asg1
(g2
g3
Ntp349
Rp350
(dp351
g7
I16
sb(lp352
(S'09:23'
p353
S'10:09'
p354
tp355
a(S'10:37'
p356
S'11:31'
p357
tp358
a(S'13:26'
p359
S'14:14'
p360
tp361
a(S'14:53'
p362
S'15:32'
p363
tp364
a(S'17:22'
p365
S'17:52'
p366
tp367
a(S'18:25'
p368
S'19:16'
p369
tp370
asg1
(g2
g3
Ntp371
Rp372
(dp373
g7
I17
sb(lp374
(S'09:23'
p375
S'10:08'
p376
tp377
a(S'10:18'
p378
S'11:05'
p379
tp380
a(S'12:24'
p381
S'13:13'
p382
tp383
a(S'13:26'
p384
S'14:19'
p385
tp386
a(S'14:31'
p387
S'15:27'
p388
tp389
a(S'17:26'
p390
S'18:03'
p391
tp392
a(S'18:25'
p393
S'19:16'
p394
tp395
a(S'19:19'
p396
S'19:56'
p397
tp398
asg1
(g2
g3
Ntp399
Rp400
(dp401
g7
I18
sb(lp402
(S'11:48'
p403
S'11:54'
p404
tp405
a(S'13:18'
p406
S'13:24'
p407
tp408
a(S'13:28'
p409
S'13:33'
p410
tp411
a(S'15:06'
p412
S'15:11'
p413
tp414
a(S'18:27'
p415
S'18:32'
p416
tp417
asg1
(g2
g3
Ntp418
Rp419
(dp420
g7
I19
sb(lp421
(S'11:01'
p422
S'11:50'
p423
tp424
a(S'12:48'
p425
S'13:27'
p426
tp427
a(S'14:26'
p428
S'15:03'
p429
tp430
a(S'15:18'
p431
S'16:07'
p432
tp433
a(S'17:35'
p434
S'17:40'
p435
tp436
a(S'19:44'
p437
Ntp438
asg1
(g2
g3
Ntp439
Rp440
(dp441
g7
I20
sb(lp442
(S'12:50'
p443
S'13:33'
p444
tp445
a(S'17:34'
p446
S'18:08'
p447
tp448
as.