(dp0
ccopy_reg
_reconstructor
p1
(cmachine
ClosedMachine
p2
c__builtin__
object
p3
Ntp4
Rp5
(dp6
S'machine_id'
p7
I1
sb(lp8
(S'08:52'
p9
S'09:22'
p10
tp11
a(S'10:08'
p12
S'10:46'
p13
tp14
a(S'12:25'
p15
S'13:02'
p16
tp17
a(S'14:56'
p18
S'15:35'
p19
tp20
a(S'18:27'
p21
S'19:06'
p22
tp23
asg1
(g2
g3
Ntp24
Rp25
(dp26
g7
I2
sb(lp27
(S'08:52'
p28
S'09:29'
p29
tp30
a(S'10:08'
p31
S'10:47'
p32
tp33
a(S'12:25'
p34
S'12:55'
p35
tp36
a(S'14:56'
p37
S'15:35'
p38
tp39
a(S'18:27'
p40
S'19:07'
p41
tp42
asg1
(g2
g3
Ntp43
Rp44
(dp45
g7
I3
sb(lp46
(S'06:58'
p47
S'07:36'
p48
tp49
a(S'08:52'
p50
S'09:30'
p51
tp52
a(S'10:08'
p53
S'10:56'
p54
tp55
a(S'14:56'
p56
S'15:34'
p57
tp58
a(S'18:27'
p59
S'18:57'
p60
tp61
asg1
(g2
g3
Ntp62
Rp63
(dp64
g7
I4
sb(lp65
(S'06:58'
p66
S'07:46'
p67
tp68
a(S'09:44'
p69
S'10:30'
p70
tp71
a(S'11:51'
p72
S'12:30'
p73
tp74
a(S'14:01'
p75
S'14:47'
p76
tp77
a(S'15:30'
p78
S'16:06'
p79
tp80
a(S'18:15'
p81
S'19:01'
p82
tp83
a(S'19:13'
p84
S'19:52'
p85
tp86
asg1
(g2
g3
Ntp87
Rp88
(dp89
g7
I5
sb(lp90
(S'06:58'
p91
S'08:14'
p92
tp93
a(S'09:44'
p94
S'10:56'
p95
tp96
a(S'11:59'
p97
S'12:37'
p98
tp99
a(S'14:02'
p100
S'14:51'
p101
tp102
a(S'16:36'
p103
S'16:41'
p104
tp105
a(S'17:26'
p106
S'18:12'
p107
tp108
a(S'19:34'
p109
Ntp110
asg1
(g2
g3
Ntp111
Rp112
(dp113
g7
I6
sb(lp114
(S'10:57'
p115
S'11:35'
p116
tp117
a(S'13:19'
p118
S'13:52'
p119
tp120
a(S'15:07'
p121
S'15:44'
p122
tp123
a(S'16:28'
p124
S'16:57'
p125
tp126
a(S'17:23'
p127
S'17:53'
p128
tp129
a(S'19:34'
p130
Ntp131
asg1
(g2
g3
Ntp132
Rp133
(dp134
g7
I7
sb(lp135
(S'10:57'
p136
S'11:02'
p137
tp138
a(S'11:53'
p139
S'12:41'
p140
tp141
a(S'15:08'
p142
S'15:48'
p143
tp144
a(S'16:29'
p145
S'17:06'
p146
tp147
a(S'17:22'
p148
S'17:56'
p149
tp150
a(S'19:50'
p151
Ntp152
asg1
(g2
g3
Ntp153
Rp154
(dp155
g7
I8
sb(lp156
(S'07:39'
p157
S'07:57'
p158
tp159
a(S'08:31'
p160
S'08:55'
p161
tp162
a(S'11:00'
p163
S'11:22'
p164
tp165
a(S'11:27'
p166
S'11:35'
p167
tp168
aS'Ute av drift'
p169
asg1
(g2
g3
Ntp170
Rp171
(dp172
g7
I9
sb(lp173
(S'07:39'
p174
S'08:08'
p175
tp176
a(S'08:59'
p177
S'10:46'
p178
tp179
a(S'11:05'
p180
S'11:37'
p181
tp182
a(S'14:55'
p183
S'15:33'
p184
tp185
a(S'18:26'
p186
S'18:56'
p187
tp188
asg1
(g2
g3
Ntp189
Rp190
(dp191
g7
I10
sb(lp192
(S'08:59'
p193
S'09:57'
p194
tp195
a(S'11:02'
p196
S'11:39'
p197
tp198
a(S'13:52'
p199
S'14:32'
p200
tp201
a(S'18:26'
p202
S'19:06'
p203
tp204
asg1
(g2
g3
Ntp205
Rp206
(dp207
g7
I11
sb(lp208
(S'09:41'
p209
S'10:19'
p210
tp211
a(S'11:02'
p212
S'11:07'
p213
tp214
a(S'13:53'
p215
S'14:23'
p216
tp217
a(S'16:59'
p218
S'17:37'
p219
tp220
a(S'18:26'
p221
S'19:19'
p222
tp223
asg1
(g2
g3
Ntp224
Rp225
(dp226
g7
I12
sb(lp227
(S'10:59'
p228
S'11:38'
p229
tp230
a(S'14:55'
p231
S'15:29'
p232
tp233
a(S'16:59'
p234
S'17:38'
p235
tp236
a(S'18:26'
p237
S'18:58'
p238
tp239
a(S'19:56'
p240
Ntp241
asg1
(g2
g3
Ntp242
Rp243
(dp244
g7
I13
sb(lp245
(S'14:43'
p246
S'15:23'
p247
tp248
a(S'15:57'
p249
S'16:34'
p250
tp251
asg1
(g2
g3
Ntp252
Rp253
(dp254
g7
I14
sb(lp255
(S'12:07'
p256
S'12:08'
p257
tp258
a(S'14:44'
p259
S'15:21'
p260
tp261
a(S'15:57'
p262
S'16:36'
p263
tp264
a(S'17:40'
p265
S'17:45'
p266
tp267
asg1
(g2
g3
Ntp268
Rp269
(dp270
g7
I15
sb(lp271
(S'12:07'
p272
S'12:08'
p273
tp274
a(S'14:44'
p275
S'15:23'
p276
tp277
a(S'17:40'
p278
S'19:07'
p279
tp280
asg1
(g2
g3
Ntp281
Rp282
(dp283
g7
I16
sb(lp284
(S'07:17'
p285
S'07:55'
p286
tp287
a(S'08:59'
p288
S'09:50'
p289
tp290
a(S'12:07'
p291
S'12:08'
p292
tp293
a(S'12:50'
p294
S'13:38'
p295
tp296
a(S'15:10'
p297
S'16:01'
p298
tp299
a(S'17:40'
p300
S'18:52'
p301
tp302
asg1
(g2
g3
Ntp303
Rp304
(dp305
g7
I17
sb(lp306
(S'07:17'
p307
S'07:56'
p308
tp309
a(S'08:59'
p310
S'09:46'
p311
tp312
a(S'12:07'
p313
S'12:48'
p314
tp315
a(S'15:10'
p316
S'16:01'
p317
tp318
a(S'17:41'
p319
S'18:53'
p320
tp321
asg1
(g2
g3
Ntp322
Rp323
(dp324
g7
I18
sb(lp325
(S'07:17'
p326
S'08:03'
p327
tp328
a(S'08:59'
p329
S'09:50'
p330
tp331
a(S'12:07'
p332
S'12:45'
p333
tp334
a(S'13:25'
p335
S'14:05'
p336
tp337
a(S'15:09'
p338
S'15:55'
p339
tp340
a(S'19:15'
p341
S'19:52'
p342
tp343
asg1
(g2
g3
Ntp344
Rp345
(dp346
g7
I19
sb(lp347
(S'10:58'
p348
S'11:28'
p349
tp350
a(S'12:07'
p351
S'12:08'
p352
tp353
a(S'12:12'
p354
S'12:42'
p355
tp356
a(S'15:08'
p357
S'15:50'
p358
tp359
a(S'17:18'
p360
S'17:57'
p361
tp362
asg1
(g2
g3
Ntp363
Rp364
(dp365
g7
I20
sb(lp366
(S'14:54'
p367
S'15:31'
p368
tp369
a(S'17:12'
p370
S'17:17'
p371
tp372
a(S'17:18'
p373
S'17:58'
p374
tp375
as.