(dp0
ccopy_reg
_reconstructor
p1
(cmachine
ClosedMachine
p2
c__builtin__
object
p3
Ntp4
Rp5
(dp6
S'machine_id'
p7
I1
sb(lp8
(S'16:45'
p9
S'17:23'
p10
tp11
a(S'17:30'
p12
S'18:20'
p13
tp14
a(S'18:28'
p15
S'19:01'
p16
tp17
asg1
(g2
g3
Ntp18
Rp19
(dp20
g7
I2
sb(lp21
(S'09:18'
p22
S'10:07'
p23
tp24
a(S'11:17'
p25
S'11:47'
p26
tp27
a(S'12:33'
p28
S'13:13'
p29
tp30
a(S'14:00'
p31
S'14:34'
p32
tp33
a(S'16:45'
p34
S'17:24'
p35
tp36
a(S'17:31'
p37
S'18:09'
p38
tp39
a(S'18:27'
p40
S'19:04'
p41
tp42
asg1
(g2
g3
Ntp43
Rp44
(dp45
g7
I3
sb(lp46
(S'09:19'
p47
S'10:06'
p48
tp49
a(S'11:17'
p50
S'11:54'
p51
tp52
a(S'12:33'
p53
S'13:12'
p54
tp55
a(S'14:00'
p56
S'14:50'
p57
tp58
a(S'16:45'
p59
S'17:24'
p60
tp61
a(S'17:33'
p62
S'18:12'
p63
tp64
a(S'18:27'
p65
S'19:05'
p66
tp67
asg1
(g2
g3
Ntp68
Rp69
(dp70
g7
I4
sb(lp71
(S'09:19'
p72
S'09:52'
p73
tp74
a(S'11:17'
p75
S'11:47'
p76
tp77
a(S'12:33'
p78
S'13:12'
p79
tp80
a(S'14:00'
p81
S'14:39'
p82
tp83
a(S'16:45'
p84
S'17:24'
p85
tp86
a(S'17:41'
p87
S'18:19'
p88
tp89
a(S'19:25'
p90
Ntp91
asg1
(g2
g3
Ntp92
Rp93
(dp94
g7
I5
sb(lp95
(S'09:19'
p96
S'09:53'
p97
tp98
a(S'11:46'
p99
S'12:34'
p100
tp101
a(S'13:42'
p102
S'14:15'
p103
tp104
a(S'14:49'
p105
S'15:27'
p106
tp107
a(S'16:45'
p108
S'17:24'
p109
tp110
a(S'17:41'
p111
S'18:12'
p112
tp113
a(S'18:17'
p114
S'18:46'
p115
tp116
a(S'19:25'
p117
Ntp118
asg1
(g2
g3
Ntp119
Rp120
(dp121
g7
I6
sb(lp122
(S'15:58'
p123
S'16:35'
p124
tp125
a(S'17:09'
p126
S'17:46'
p127
tp128
a(S'17:52'
p129
S'18:29'
p130
tp131
a(S'19:13'
p132
S'19:52'
p133
tp134
asg1
(g2
g3
Ntp135
Rp136
(dp137
g7
I7
sb(lp138
(S'12:03'
p139
S'12:42'
p140
tp141
a(S'15:59'
p142
S'16:37'
p143
tp144
a(S'17:09'
p145
S'17:39'
p146
tp147
a(S'18:03'
p148
S'18:45'
p149
tp150
a(S'19:13'
p151
S'19:52'
p152
tp153
asg1
(g2
g3
Ntp154
Rp155
(dp156
g7
I8
sb(lp157
(S'11:21'
p158
S'11:51'
p159
tp160
a(S'14:22'
p161
S'15:00'
p162
tp163
a(S'15:31'
p164
S'16:19'
p165
tp166
a(S'16:49'
p167
S'17:28'
p168
tp169
a(S'17:46'
p170
S'18:15'
p171
tp172
asg1
(g2
g3
Ntp173
Rp174
(dp175
g7
I9
sb(lp176
(S'15:31'
p177
S'16:09'
p178
tp179
a(S'16:49'
p180
S'17:22'
p181
tp182
a(S'17:43'
p183
S'18:20'
p184
tp185
a(S'18:30'
p186
S'19:09'
p187
tp188
a(S'19:31'
p189
Ntp190
asg1
(g2
g3
Ntp191
Rp192
(dp193
g7
I10
sb(lp194
(S'17:11'
p195
S'17:51'
p196
tp197
a(S'17:58'
p198
S'18:42'
p199
tp200
asg1
(g2
g3
Ntp201
Rp202
(dp203
g7
I11
sb(lp204
(S'08:24'
p205
S'09:04'
p206
tp207
a(S'13:22'
p208
S'14:00'
p209
tp210
a(S'16:21'
p211
S'17:00'
p212
tp213
a(S'17:13'
p214
S'17:51'
p215
tp216
a(S'18:22'
p217
S'18:55'
p218
tp219
asg1
(g2
g3
Ntp220
Rp221
(dp222
g7
I12
sb(lp223
(S'08:22'
p224
S'08:59'
p225
tp226
a(S'13:22'
p227
S'14:01'
p228
tp229
a(S'17:07'
p230
S'18:05'
p231
tp232
a(S'18:40'
p233
S'19:19'
p234
tp235
asg1
(g2
g3
Ntp236
Rp237
(dp238
g7
I13
sb(lp239
(S'08:22'
p240
S'09:02'
p241
tp242
a(S'14:01'
p243
S'14:40'
p244
tp245
a(S'17:25'
p246
S'18:05'
p247
tp248
asg1
(g2
g3
Ntp249
Rp250
(dp251
g7
I14
sb(lp252
(S'08:22'
p253
S'09:00'
p254
tp255
a(S'10:43'
p256
S'11:20'
p257
tp258
a(S'13:23'
p259
S'13:53'
p260
tp261
a(S'14:01'
p262
S'14:40'
p263
tp264
a(S'17:26'
p265
S'18:04'
p266
tp267
a(S'19:08'
p268
S'19:46'
p269
tp270
asg1
(cmachine
BrokenDownMachine
p271
g3
Ntp272
Rp273
(dp274
g7
I15
sb(lp275
S'Ute av drift'
p276
asg1
(g2
g3
Ntp277
Rp278
(dp279
g7
I16
sb(lp280
(S'08:22'
p281
S'09:02'
p282
tp283
a(S'10:05'
p284
S'10:42'
p285
tp286
a(S'14:01'
p287
S'14:41'
p288
tp289
a(S'17:27'
p290
S'18:15'
p291
tp292
a(S'18:38'
p293
S'19:08'
p294
tp295
asg1
(g2
g3
Ntp296
Rp297
(dp298
g7
I17
sb(lp299
(S'08:34'
p300
S'09:13'
p301
tp302
a(S'10:05'
p303
S'10:44'
p304
tp305
a(S'13:12'
p306
S'14:02'
p307
tp308
a(S'16:20'
p309
S'17:00'
p310
tp311
a(S'17:10'
p312
S'17:47'
p313
tp314
a(S'18:29'
p315
S'19:08'
p316
tp317
a(S'19:27'
p318
Ntp319
asg1
(g2
g3
Ntp320
Rp321
(dp322
g7
I18
sb(lp323
(S'13:12'
p324
S'13:17'
p325
tp326
a(S'16:20'
p327
S'16:25'
p328
tp329
a(S'17:14'
p330
S'17:19'
p331
tp332
a(S'18:29'
p333
S'18:35'
p334
tp335
a(S'19:27'
p336
S'19:33'
p337
tp338
asg1
(g2
g3
Ntp339
Rp340
(dp341
g7
I19
sb(lp342
(S'11:21'
p343
S'11:57'
p344
tp345
a(S'16:49'
p346
S'17:25'
p347
tp348
a(S'17:42'
p349
S'18:20'
p350
tp351
a(S'18:26'
p352
S'19:03'
p353
tp354
asg1
(g2
g3
Ntp355
Rp356
(dp357
g7
I20
sb(lp358
(S'16:47'
p359
S'17:20'
p360
tp361
a(S'17:41'
p362
S'18:18'
p363
tp364
a(S'18:26'
p365
S'19:05'
p366
tp367
as.