(dp0
ccopy_reg
_reconstructor
p1
(cmachine
ClosedMachine
p2
c__builtin__
object
p3
Ntp4
Rp5
(dp6
S'machine_id'
p7
I1
sb(lp8
(S'07:23'
p9
S'08:00'
p10
tp11
a(S'13:52'
p12
S'14:29'
p13
tp14
a(S'16:04'
p15
S'16:42'
p16
tp17
a(S'17:04'
p18
S'17:50'
p19
tp20
a(S'19:00'
p21
S'19:50'
p22
tp23
asg1
(g2
g3
Ntp24
Rp25
(dp26
g7
I2
sb(lp27
(S'07:23'
p28
S'07:54'
p29
tp30
a(S'10:04'
p31
S'10:43'
p32
tp33
a(S'16:04'
p34
S'16:44'
p35
tp36
a(S'17:06'
p37
S'17:45'
p38
tp39
a(S'19:00'
p40
S'19:39'
p41
tp42
asg1
(g2
g3
Ntp43
Rp44
(dp45
g7
I3
sb(lp46
(S'10:03'
p47
S'10:34'
p48
tp49
a(S'12:14'
p50
S'13:00'
p51
tp52
a(S'16:04'
p53
S'16:35'
p54
tp55
a(S'17:04'
p56
S'17:44'
p57
tp58
a(S'19:39'
p59
Ntp60
asg1
(g2
g3
Ntp61
Rp62
(dp63
g7
I4
sb(lp64
(S'08:56'
p65
S'09:34'
p66
tp67
a(S'09:48'
p68
S'10:25'
p69
tp70
a(S'12:08'
p71
S'12:44'
p72
tp73
a(S'14:54'
p74
S'15:38'
p75
tp76
a(S'16:24'
p77
S'17:01'
p78
tp79
asg1
(g2
g3
Ntp80
Rp81
(dp82
g7
I5
sb(lp83
(S'08:56'
p84
S'09:35'
p85
tp86
a(S'09:49'
p87
S'10:28'
p88
tp89
a(S'12:07'
p90
S'12:46'
p91
tp92
a(S'14:42'
p93
S'15:21'
p94
tp95
a(S'15:30'
p96
S'16:07'
p97
tp98
a(S'17:04'
p99
S'17:42'
p100
tp101
a(S'19:40'
p102
Ntp103
asg1
(g2
g3
Ntp104
Rp105
(dp106
g7
I6
sb(lp107
(S'12:30'
p108
S'13:08'
p109
tp110
a(S'18:01'
p111
S'18:39'
p112
tp113
a(S'19:36'
p114
Ntp115
asg1
(g2
g3
Ntp116
Rp117
(dp118
g7
I7
sb(lp119
(S'10:17'
p120
S'10:55'
p121
tp122
a(S'16:06'
p123
S'16:52'
p124
tp125
a(S'17:04'
p126
S'17:49'
p127
tp128
a(S'19:37'
p129
Ntp130
asg1
(g2
g3
Ntp131
Rp132
(dp133
g7
I8
sb(lp134
sg1
(g2
g3
Ntp135
Rp136
(dp137
g7
I9
sb(lp138
(S'09:08'
p139
S'09:45'
p140
tp141
a(S'16:10'
p142
S'16:46'
p143
tp144
a(S'18:10'
p145
S'18:48'
p146
tp147
a(S'19:41'
p148
Ntp149
asg1
(g2
g3
Ntp150
Rp151
(dp152
g7
I10
sb(lp153
(S'09:08'
p154
S'09:47'
p155
tp156
a(S'11:05'
p157
S'11:43'
p158
tp159
a(S'18:10'
p160
S'18:49'
p161
tp162
a(S'19:42'
p163
Ntp164
asg1
(g2
g3
Ntp165
Rp166
(dp167
g7
I11
sb(lp168
(S'09:08'
p169
S'09:47'
p170
tp171
a(S'11:05'
p172
S'11:44'
p173
tp174
a(S'16:52'
p175
S'17:34'
p176
tp177
a(S'18:10'
p178
S'18:51'
p179
tp180
a(S'19:41'
p181
Ntp182
asg1
(g2
g3
Ntp183
Rp184
(dp185
g7
I12
sb(lp186
(S'14:07'
p187
S'14:37'
p188
tp189
a(S'16:52'
p190
S'17:31'
p191
tp192
a(S'18:05'
p193
S'18:56'
p194
tp195
asg1
(g2
g3
Ntp196
Rp197
(dp198
g7
I13
sb(lp199
(S'13:40'
p200
S'14:18'
p201
tp202
a(S'16:53'
p203
S'17:32'
p204
tp205
a(S'18:14'
p206
S'18:53'
p207
tp208
asg1
(g2
g3
Ntp209
Rp210
(dp211
g7
I14
sb(lp212
(S'13:40'
p213
S'14:18'
p214
tp215
a(S'16:53'
p216
S'17:30'
p217
tp218
a(S'18:05'
p219
S'18:44'
p220
tp221
asg1
(cmachine
BrokenDownMachine
p222
g3
Ntp223
Rp224
(dp225
g7
I15
sb(lp226
S'Ute av drift'
p227
asg1
(g2
g3
Ntp228
Rp229
(dp230
g7
I16
sb(lp231
(S'11:18'
p232
S'11:57'
p233
tp234
a(S'13:33'
p235
S'14:12'
p236
tp237
a(S'18:05'
p238
S'18:35'
p239
tp240
asg1
(g2
g3
Ntp241
Rp242
(dp243
g7
I17
sb(lp244
(S'12:30'
p245
S'13:10'
p246
tp247
a(S'18:12'
p248
S'18:45'
p249
tp250
a(S'19:40'
p251
Ntp252
asg1
(g2
g3
Ntp253
Rp254
(dp255
g7
I18
sb(lp256
sg1
(g2
g3
Ntp257
Rp258
(dp259
g7
I19
sb(lp260
(S'13:40'
p261
S'14:18'
p262
tp263
a(S'17:35'
p264
S'18:13'
p265
tp266
a(S'19:40'
p267
Ntp268
asg1
(g2
g3
Ntp269
Rp270
(dp271
g7
I20
sb(lp272
(S'08:36'
p273
S'09:06'
p274
tp275
a(S'13:39'
p276
S'14:17'
p277
tp278
a(S'18:19'
p279
S'18:57'
p280
tp281
as.