(dp0
ccopy_reg
_reconstructor
p1
(cmachine
ClosedMachine
p2
c__builtin__
object
p3
Ntp4
Rp5
(dp6
S'machine_id'
p7
I1
sb(lp8
(S'08:57'
p9
S'09:42'
p10
tp11
a(S'10:18'
p12
S'11:04'
p13
tp14
a(S'12:43'
p15
S'13:23'
p16
tp17
a(S'15:19'
p18
S'15:57'
p19
tp20
a(S'17:53'
p21
S'18:30'
p22
tp23
asg1
(g2
g3
Ntp24
Rp25
(dp26
g7
I2
sb(lp27
(S'08:57'
p28
S'09:44'
p29
tp30
a(S'10:19'
p31
S'11:06'
p32
tp33
a(S'12:43'
p34
S'13:22'
p35
tp36
a(S'15:19'
p37
S'16:07'
p38
tp39
a(S'18:46'
p40
S'19:23'
p41
tp42
asg1
(g2
g3
Ntp43
Rp44
(dp45
g7
I3
sb(lp46
(S'08:21'
p47
S'09:00'
p48
tp49
a(S'11:44'
p50
S'12:22'
p51
tp52
a(S'15:14'
p53
S'15:53'
p54
tp55
a(S'17:40'
p56
S'18:17'
p57
tp58
asg1
(g2
g3
Ntp59
Rp60
(dp61
g7
I4
sb(lp62
(S'08:22'
p63
S'09:09'
p64
tp65
a(S'11:43'
p66
S'12:16'
p67
tp68
a(S'12:43'
p69
S'13:22'
p70
tp71
a(S'15:14'
p72
S'15:45'
p73
tp74
a(S'16:27'
p75
S'17:14'
p76
tp77
asg1
(g2
g3
Ntp78
Rp79
(dp80
g7
I5
sb(lp81
(S'07:08'
p82
S'07:47'
p83
tp84
a(S'09:44'
p85
S'10:24'
p86
tp87
a(S'11:44'
p88
S'12:31'
p89
tp90
a(S'14:49'
p91
S'15:27'
p92
tp93
a(S'16:27'
p94
S'17:13'
p95
tp96
asg1
(g2
g3
Ntp97
Rp98
(dp99
g7
I6
sb(lp100
(S'10:58'
p101
S'11:37'
p102
tp103
a(S'12:00'
p104
S'12:38'
p105
tp106
a(S'18:42'
p107
S'19:20'
p108
tp109
asg1
(g2
g3
Ntp110
Rp111
(dp112
g7
I7
sb(lp113
(S'10:59'
p114
S'11:38'
p115
tp116
a(S'11:57'
p117
S'12:43'
p118
tp119
a(S'18:50'
p120
S'19:42'
p121
tp122
asg1
(cmachine
BrokenDownMachine
p123
g3
Ntp124
Rp125
(dp126
g7
I8
sb(lp127
S'Ute av drift'
p128
asg1
(g2
g3
Ntp129
Rp130
(dp131
g7
I9
sb(lp132
(S'09:31'
p133
S'10:23'
p134
tp135
a(S'15:29'
p136
S'16:07'
p137
tp138
a(S'18:39'
p139
S'19:18'
p140
tp141
a(S'19:33'
p142
Ntp143
asg1
(g2
g3
Ntp144
Rp145
(dp146
g7
I10
sb(lp147
(S'09:31'
p148
S'10:10'
p149
tp150
a(S'10:47'
p151
S'11:26'
p152
tp153
a(S'15:29'
p154
S'16:09'
p155
tp156
a(S'18:39'
p157
S'19:18'
p158
tp159
a(S'19:33'
p160
Ntp161
asg1
(g2
g3
Ntp162
Rp163
(dp164
g7
I11
sb(lp165
(S'10:19'
p166
S'10:57'
p167
tp168
a(S'15:29'
p169
S'16:09'
p170
tp171
a(S'18:54'
p172
Ntp173
asg1
(g2
g3
Ntp174
Rp175
(dp176
g7
I12
sb(lp177
(S'15:29'
p178
S'16:03'
p179
tp180
a(S'18:54'
p181
Ntp182
asg1
(g2
g3
Ntp183
Rp184
(dp185
g7
I13
sb(lp186
(S'09:00'
p187
S'09:40'
p188
tp189
a(S'16:02'
p190
S'16:48'
p191
tp192
asg1
(g2
g3
Ntp193
Rp194
(dp195
g7
I14
sb(lp196
(S'09:00'
p197
S'09:22'
p198
tp199
a(S'10:21'
p200
S'10:45'
p201
tp202
a(S'16:02'
p203
S'16:48'
p204
tp205
asg1
(g2
g3
Ntp206
Rp207
(dp208
g7
I15
sb(lp209
(S'10:03'
p210
S'10:43'
p211
tp212
a(S'16:03'
p213
S'17:15'
p214
tp215
a(S'18:48'
p216
S'19:38'
p217
tp218
asg1
(g2
g3
Ntp219
Rp220
(dp221
g7
I16
sb(lp222
(S'10:00'
p223
S'10:39'
p224
tp225
a(S'13:36'
p226
S'13:41'
p227
tp228
a(S'15:42'
p229
S'16:19'
p230
tp231
a(S'18:48'
p232
S'19:27'
p233
tp234
asg1
(g2
g3
Ntp235
Rp236
(dp237
g7
I17
sb(lp238
(S'10:03'
p239
S'10:33'
p240
tp241
a(S'13:35'
p242
S'14:20'
p243
tp244
asg1
(g2
g3
Ntp245
Rp246
(dp247
g7
I18
sb(lp248
(S'10:03'
p249
S'10:42'
p250
tp251
a(S'13:35'
p252
S'14:22'
p253
tp254
asg1
(g2
g3
Ntp255
Rp256
(dp257
g7
I19
sb(lp258
(S'10:19'
p259
S'10:58'
p260
tp261
asg1
(g2
g3
Ntp262
Rp263
(dp264
g7
I20
sb(lp265
(S'12:43'
p266
S'13:20'
p267
tp268
as.