(dp0
ccopy_reg
_reconstructor
p1
(cmachine
ClosedMachine
p2
c__builtin__
object
p3
Ntp4
Rp5
(dp6
S'machine_id'
p7
I1
sb(lp8
(S'11:17'
p9
S'12:04'
p10
tp11
a(S'15:11'
p12
S'15:50'
p13
tp14
a(S'16:06'
p15
S'16:46'
p16
tp17
asg1
(g2
g3
Ntp18
Rp19
(dp20
g7
I2
sb(lp21
(S'11:16'
p22
S'12:03'
p23
tp24
a(S'16:06'
p25
S'16:39'
p26
tp27
asg1
(g2
g3
Ntp28
Rp29
(dp30
g7
I3
sb(lp31
(S'09:15'
p32
S'09:54'
p33
tp34
a(S'16:42'
p35
S'17:21'
p36
tp37
a(S'17:26'
p38
S'18:23'
p39
tp40
a(S'18:33'
p41
S'19:12'
p42
tp43
asg1
(g2
g3
Ntp44
Rp45
(dp46
g7
I4
sb(lp47
(S'07:29'
p48
S'08:08'
p49
tp50
a(S'09:15'
p51
S'09:53'
p52
tp53
asg1
(g2
g3
Ntp54
Rp55
(dp56
g7
I5
sb(lp57
(S'07:29'
p58
S'08:12'
p59
tp60
a(S'09:15'
p61
S'10:05'
p62
tp63
a(S'16:42'
p64
S'17:21'
p65
tp66
a(S'17:59'
p67
S'18:36'
p68
tp69
asg1
(g2
g3
Ntp70
Rp71
(dp72
g7
I6
sb(lp73
(S'09:44'
p74
S'10:30'
p75
tp76
a(S'10:39'
p77
S'11:18'
p78
tp79
a(S'13:05'
p80
S'13:48'
p81
tp82
a(S'14:24'
p83
S'15:02'
p84
tp85
a(S'16:57'
p86
S'17:35'
p87
tp88
a(S'18:06'
p89
S'18:53'
p90
tp91
asg1
(g2
g3
Ntp92
Rp93
(dp94
g7
I7
sb(lp95
(S'09:44'
p96
S'10:31'
p97
tp98
a(S'14:25'
p99
S'15:13'
p100
tp101
a(S'16:32'
p102
S'17:19'
p103
tp104
a(S'17:59'
p105
S'18:39'
p106
tp107
asg1
(g2
g3
Ntp108
Rp109
(dp110
g7
I8
sb(lp111
sg1
(g2
g3
Ntp112
Rp113
(dp114
g7
I9
sb(lp115
(S'11:42'
p116
S'12:14'
p117
tp118
a(S'14:20'
p119
S'15:08'
p120
tp121
a(S'15:37'
p122
S'16:19'
p123
tp124
a(S'17:11'
p125
S'17:50'
p126
tp127
asg1
(g2
g3
Ntp128
Rp129
(dp130
g7
I10
sb(lp131
(S'11:42'
p132
S'12:20'
p133
tp134
a(S'14:20'
p135
S'14:59'
p136
tp137
a(S'15:37'
p138
S'16:25'
p139
tp140
a(S'17:11'
p141
S'17:50'
p142
tp143
a(S'18:34'
p144
S'19:13'
p145
tp146
asg1
(g2
g3
Ntp147
Rp148
(dp149
g7
I11
sb(lp150
(S'11:42'
p151
S'12:19'
p152
tp153
a(S'13:24'
p154
S'14:03'
p155
tp156
a(S'18:05'
p157
S'18:44'
p158
tp159
a(S'18:49'
p160
S'19:35'
p161
tp162
asg1
(g2
g3
Ntp163
Rp164
(dp165
g7
I12
sb(lp166
(S'11:44'
p167
S'12:24'
p168
tp169
a(S'14:20'
p170
S'15:05'
p171
tp172
a(S'16:25'
p173
S'17:04'
p174
tp175
asg1
(g2
g3
Ntp176
Rp177
(dp178
g7
I13
sb(lp179
(S'11:44'
p180
S'12:24'
p181
tp182
a(S'13:42'
p183
S'14:20'
p184
tp185
a(S'15:07'
p186
S'15:44'
p187
tp188
a(S'17:06'
p189
S'17:45'
p190
tp191
a(S'18:00'
p192
S'18:30'
p193
tp194
asg1
(g2
g3
Ntp195
Rp196
(dp197
g7
I14
sb(lp198
(S'13:42'
p199
S'14:21'
p200
tp201
a(S'15:09'
p202
S'15:51'
p203
tp204
a(S'17:07'
p205
S'17:44'
p206
tp207
a(S'18:00'
p208
S'18:36'
p209
tp210
asg1
(cmachine
BrokenDownMachine
p211
g3
Ntp212
Rp213
(dp214
g7
I15
sb(lp215
S'Ute av drift'
p216
asg1
(g2
g3
Ntp217
Rp218
(dp219
g7
I16
sb(lp220
(S'13:42'
p221
S'14:19'
p222
tp223
a(S'14:28'
p224
S'15:07'
p225
tp226
a(S'16:04'
p227
S'16:43'
p228
tp229
a(S'17:11'
p230
S'17:59'
p231
tp232
a(S'18:34'
p233
S'19:13'
p234
tp235
asg1
(g2
g3
Ntp236
Rp237
(dp238
g7
I17
sb(lp239
(S'09:12'
p240
S'09:50'
p241
tp242
a(S'11:46'
p243
S'12:24'
p244
tp245
a(S'13:43'
p246
S'14:29'
p247
tp248
a(S'15:10'
p249
S'15:48'
p250
tp251
a(S'17:11'
p252
S'17:50'
p253
tp254
a(S'18:31'
p255
S'19:10'
p256
tp257
asg1
(g2
g3
Ntp258
Rp259
(dp260
g7
I18
sb(lp261
sg1
(g2
g3
Ntp262
Rp263
(dp264
g7
I19
sb(lp265
(S'09:44'
p266
S'10:31'
p267
tp268
a(S'14:09'
p269
S'14:55'
p270
tp271
a(S'17:25'
p272
S'18:02'
p273
tp274
a(S'18:31'
p275
S'19:09'
p276
tp277
asg1
(g2
g3
Ntp278
Rp279
(dp280
g7
I20
sb(lp281
(S'09:43'
p282
S'10:31'
p283
tp284
a(S'10:40'
p285
S'11:16'
p286
tp287
a(S'14:08'
p288
S'14:46'
p289
tp290
a(S'17:26'
p291
S'17:59'
p292
tp293
a(S'18:22'
p294
S'19:09'
p295
tp296
as.